ASxxxx Linker V03.00/V05.40 + sdld,  page 1.
Hexadecimal  [32-Bits]

Area                                    Addr        Size        Decimal Bytes (Attributes)
--------------------------------        ----        ----        ------- ----- ------------
.  .ABS.                            00000000    00000000 =           0. bytes (ABS,CON)

      Value  Global                              Global Defined In Module
      -----  --------------------------------   ------------------------
     00000000  .__.ABS.                           
     00000000  _rRAMG                             
     00000000  l__BASE                         
     00000000  l__BSS                          
     00000000  l__CABS                         
     00000000  l__CODE_0                       
     00000000  l__CRASH_HEADER                 
     00000000  l__CRASH_SCRATCH                
     00000000  l__DABS                         
     00000000  l__HEADER                       
     00000000  l__HEADER_LCD                   
     00000000  l__HEADER_SIO                   
     00000000  l__HEADER_TIMER                 
     00000000  l__HEAP                         
     00000000  l__HEAP_END                     
     00000000  l__HRAM                         
     00000000  l__LIT                          
     00000000  s__CABS                         
     00000000  s__CRASH_HEADER                 
     00000000  s__CRASH_HEADER0                
     00000000  s__CRASH_HEADER1                
     00000000  s__CRASH_SCRATCH                
     00000000  s__CRASH_SCRATCH2               
     00000000  s__DABS                         
     00000000  s__HEADER                       
     00000000  s__HEADER0                      
     00000000  s__HEADER1                      
     00000000  s__HEADER10                     
     00000000  s__HEADER11                     
     00000000  s__HEADER2                      
     00000000  s__HEADER3                      
     00000000  s__HEADER4                      
     00000000  s__HEADER5                      
     00000000  s__HEADER6                      
     00000000  s__HEADER7                      
     00000000  s__HEADER8                      
     00000000  s__HEADER9                      
     00000000  s__HEADER_LCD                   
     00000000  s__HEADER_LCD0                  
     00000000  s__HEADER_SIO                   
     00000000  s__HEADER_SIO0                  
     00000000  s__HEADER_TIMER                 
     00000000  s__HEADER_TIMER0                
     00000000  s__HEADERa                      
     00000000  s__HEADERb                      
     00000000  s__HEADERc                      
     00000000  s__HEADERd                      
     00000000  s__HEADERe                      
     00000000  s__HEADERf                      
     00000000  s__HRAM                         
ASxxxx Linker V03.00/V05.40 + sdld,  page 2.
Hexadecimal  [32-Bits]

Area                                    Addr        Size        Decimal Bytes (Attributes)
--------------------------------        ----        ----        ------- ----- ------------
.  .ABS.                            00000000    00000000 =           0. bytes (ABS,CON)

      Value  Global                              Global Defined In Module
      -----  --------------------------------   ------------------------
     00000000  s__HRAM12                       
     00000001  ___bank_ACTOR                      actor
     00000001  ___bank_VM_ACTOR                   vm_actor
     00000001  ___bank_VM_SGB                     vm_sgb
     00000001  ___bank_palette_0                  palette_0
     00000001  ___bank_palette_1                  palette_1
     00000001  ___bank_song_rulz_outside_0_Data   song_rulz_outside_0_Data
     00000001  ___mute_mask_sound_legacy_0_0      sound_legacy_0_0
     00000001  b_activate_actor                   actor
     00000001  b_activate_actors_in_col           actor
     00000001  b_activate_actors_in_row           actor
     00000001  b_actor_at_tile                    actor
     00000001  b_actor_get_frame_offset           actor
     00000001  b_actor_in_front_of_player         actor
     00000001  b_actor_overlapping_bb             actor
     00000001  b_actor_overlapping_player         actor
     00000001  b_actor_set_anim_idle              actor
     00000001  b_actor_set_anim_moving            actor
     00000001  b_actor_set_dir                    actor
     00000001  b_actor_set_frame_offset           actor
     00000001  b_actor_set_frames                 actor
     00000001  b_actors_handle_player_collision   actor
     00000001  b_actors_init                      actor
     00000001  b_check_collision_in_direction     actor
     00000001  b_deactivate_actor                 actor
     00000001  b_player_init                      actor
     00000001  b_restore_sram                     flasher
     00000001  b_restore_sram_bank                flasher
     00000001  b_save_sram                        flasher
     00000001  b_ui_draw_frame                    ui
     00000001  b_ui_draw_text_buffer_char         ui
     00000001  b_ui_init                          ui
     00000001  b_ui_load_tiles                    ui
     00000001  b_ui_run_menu                      ui
     00000001  b_ui_run_modal                     ui
     00000001  b_ui_set_start_tile                ui
     00000001  b_vm_actor_activate                vm_actor
     00000001  b_vm_actor_begin_update            vm_actor
     00000001  b_vm_actor_deactivate              vm_actor
     00000001  b_vm_actor_emote                   vm_actor
     00000001  b_vm_actor_get_angle               vm_actor
     00000001  b_vm_actor_get_anim_frame          vm_actor
     00000001  b_vm_actor_get_dir                 vm_actor
     00000001  b_vm_actor_get_pos                 vm_actor
     00000001  b_vm_actor_move_cancel             vm_actor
     00000001  b_vm_actor_move_to                 vm_actor
     00000001  b_vm_actor_replace_tile            vm_actor
     00000001  b_vm_actor_set_anim                vm_actor
     00000001  b_vm_actor_set_anim_frame          vm_actor
     00000001  b_vm_actor_set_anim_set            vm_actor
     00000001  b_vm_actor_set_anim_tick           vm_actor
ASxxxx Linker V03.00/V05.40 + sdld,  page 3.
Hexadecimal  [32-Bits]

Area                                    Addr        Size        Decimal Bytes (Attributes)
--------------------------------        ----        ----        ------- ----- ------------
.  .ABS.                            00000000    00000000 =           0. bytes (ABS,CON)

      Value  Global                              Global Defined In Module
      -----  --------------------------------   ------------------------
     00000001  b_vm_actor_set_bounds              vm_actor
     00000001  b_vm_actor_set_dir                 vm_actor
     00000001  b_vm_actor_set_flags               vm_actor
     00000001  b_vm_actor_set_move_speed          vm_actor
     00000001  b_vm_actor_set_pos                 vm_actor
     00000001  b_vm_actor_set_spritesheet         vm_actor
     00000001  b_vm_actor_set_spritesheet_by_re   vm_actor
     00000001  b_vm_actor_terminate_update        vm_actor
     00000001  l__GSFINAL                      
     00000001  l__HEADER0                      
     00000001  l__HEADER5                      
     00000001  l__HEADERa                      
     00000001  l__HEADERb                      
     00000001  l__HEADERc                      
     00000001  l__HEADERe                      
     00000001  l__HEADERf                      
     00000002  ___bank_VM_MAIN                    vm
     00000002  ___bank_VM_UI                      vm_ui
     00000002  ___bank_font_gbs_mono              font_gbs_mono
     00000002  ___bank_song_rulz_lightmood_0_Da   song_rulz_lightmood_0_Data
     00000002  ___bank_song_tronimal_drumsexamp   song_tronimal_drumsexample_D
     00000002  ___mute_mask_sound_tronimal_soun   sound_tronimal_sound_effect
     00000002  ___mute_mask_sound_tronimal_soun   sound_tronimal_sound_effect
     00000002  ___mute_mask_sound_tronimal_soun   sound_tronimal_sound_effect
     00000002  ___mute_mask_sound_tronimal_soun   sound_tronimal_sound_effect
     00000002  ___mute_mask_sound_tronimal_soun   sound_tronimal_sound_effect
     00000002  ___mute_mask_sound_tronimal_soun   sound_tronimal_sound_effect
     00000002  ___mute_mask_sound_tronimal_soun   sound_tronimal_sound_effect
     00000002  b_remove_LCD_ISRs                  interrupts
     00000002  b_script_detach_hthread            vm
     00000002  b_script_execute                   vm
     00000002  b_script_runner_init               vm
     00000002  b_script_terminate                 vm
     00000002  b_vm_call                          vm
     00000002  b_vm_call_far                      vm
     00000002  b_vm_choice                        vm_ui
     00000002  b_vm_display_text                  vm_ui
     00000002  b_vm_get_indirect                  vm
     00000002  b_vm_get_tlocal                    vm
     00000002  b_vm_idle                          vm
     00000002  b_vm_if                            vm
     00000002  b_vm_if_const                      vm
     00000002  b_vm_init_rng                      vm
     00000002  b_vm_invoke                        vm
     00000002  b_vm_join                          vm
     00000002  b_vm_jump                          vm
     00000002  b_vm_lock                          vm
     00000002  b_vm_loop                          vm
     00000002  b_vm_memcpy                        vm
     00000002  b_vm_memset                        vm
     00000002  b_vm_overlay_clear                 vm_ui
ASxxxx Linker V03.00/V05.40 + sdld,  page 4.
Hexadecimal  [32-Bits]

Area                                    Addr        Size        Decimal Bytes (Attributes)
--------------------------------        ----        ----        ------- ----- ------------
.  .ABS.                            00000000    00000000 =           0. bytes (ABS,CON)

      Value  Global                              Global Defined In Module
      -----  --------------------------------   ------------------------
     00000002  b_vm_overlay_move_to               vm_ui
     00000002  b_vm_overlay_scroll                vm_ui
     00000002  b_vm_overlay_set_map               vm_ui
     00000002  b_vm_overlay_set_scroll            vm_ui
     00000002  b_vm_overlay_set_submap            vm_ui
     00000002  b_vm_overlay_set_submap_ex         vm_ui
     00000002  b_vm_overlay_setpos                vm_ui
     00000002  b_vm_overlay_show                  vm_ui
     00000002  b_vm_overlay_wait                  vm_ui
     00000002  b_vm_poll_loaded                   vm
     00000002  b_vm_pop                           vm
     00000002  b_vm_push                          vm
     00000002  b_vm_push_reference                vm
     00000002  b_vm_push_value                    vm
     00000002  b_vm_push_value_ind                vm
     00000002  b_vm_raise                         vm
     00000002  b_vm_rand                          vm
     00000002  b_vm_reserve                       vm
     00000002  b_vm_ret                           vm
     00000002  b_vm_ret_far                       vm
     00000002  b_vm_set                           vm
     00000002  b_vm_set_const                     vm
     00000002  b_vm_set_font                      vm_ui
     00000002  b_vm_set_indirect                  vm
     00000002  b_vm_set_text_sound                vm_ui
     00000002  b_vm_switch_text_layer             vm_ui
     00000002  b_vm_terminate                     vm
     00000002  b_vm_test_terminate                vm
     00000002  b_vm_unlock                        vm
     00000002  b_wait_frames                      vm
     00000002  l__HEADER10                     
     00000002  l__HEADER6                      
     00000002  l__HEADERd                      
     00000003  ___bank_bg_map2_tileset            bg_map2_tileset
     00000003  ___bank_bg_map3_tileset            bg_map3_tileset
     00000003  ___bank_bg_mmmmmmmmmmmmmap_tiles   bg_mmmmmmmmmmmmmap_tileset
     00000003  ___bank_song_tronimal_echoexampl   song_tronimal_echoexample_Da
     00000003  ___bank_song_win_Data              song_win_Data
     00000003  b_do_load_palette                  data_manager
     00000003  b_load_background                  data_manager
     00000003  b_load_bkg_tileset                 data_manager
     00000003  b_load_bounds                      data_manager
     00000003  b_load_emote                       data_manager
     00000003  b_load_init                        data_manager
     00000003  b_load_player                      data_manager
     00000003  b_load_scene                       data_manager
     00000003  b_load_sprite                      data_manager
     00000003  b_set_sgb_border                   sgb_border
     00000003  l__HEADER9                      
     00000003  l__HEADER_LCD0                  
     00000003  l__HRAM12                       
ASxxxx Linker V03.00/V05.40 + sdld,  page 5.
Hexadecimal  [32-Bits]

Area                                    Addr        Size        Decimal Bytes (Attributes)
--------------------------------        ----        ----        ------- ----- ------------
.  .ABS.                            00000000    00000000 =           0. bytes (ABS,CON)

      Value  Global                              Global Defined In Module
      -----  --------------------------------   ------------------------
     00000004  ___bank_VM_CAMERA                  vm_camera
     00000004  ___bank_VM_GAMEBOY                 vm_gameboy
     00000004  ___bank_bg_map2_tilemap            bg_map2_tilemap
     00000004  ___bank_bg_map3_tilemap            bg_map3_tilemap
     00000004  ___bank_bg_mmmmmmmmmmmmmap_tilem   bg_mmmmmmmmmmmmmap_tilemap
     00000004  ___bank_scene_10_collisions        scene_10_collisions
     00000004  ___bank_scene_11_collisions        scene_11_collisions
     00000004  ___bank_scene_1_collisions         scene_1_collisions
     00000004  ___bank_scene_5_init               scene_5_init
     00000004  b_camera_shake_frames              vm_camera
     00000004  b_core_reset                       core
     00000004  b_core_run                         core
     00000004  b_data_clear                       load_save
     00000004  b_data_init                        load_save
     00000004  b_data_load                        load_save
     00000004  b_data_peek                        load_save
     00000004  b_data_save                        load_save
     00000004  b_erase_flash                      
     00000004  b_parallax_init                    parallax
     00000004  b_projectile_launch                projectiles
     00000004  b_projectiles_init                 projectiles
     00000004  b_save_sram_banks                  
     00000004  b_scroll_init                      scroll
     00000004  b_scroll_repaint                   scroll
     00000004  b_scroll_reset                     scroll
     00000004  b_scroll_update                    scroll
     00000004  b_topdown_init                     topdown
     00000004  b_topdown_update                   topdown
     00000004  b_vm_camera_move_to                vm_camera
     00000004  b_vm_camera_set_pos                vm_camera
     00000004  b_vm_context_prepare               vm_gameboy
     00000004  b_vm_fade                          vm_gameboy
     00000004  b_vm_get_tile_xy                   vm_gameboy
     00000004  b_vm_input_attach                  vm_gameboy
     00000004  b_vm_input_detach                  vm_gameboy
     00000004  b_vm_input_get                     vm_gameboy
     00000004  b_vm_input_wait                    vm_gameboy
     00000004  b_vm_load_tileset                  vm_gameboy
     00000004  b_vm_poll                          vm_gameboy
     00000004  b_vm_replace_tile                  vm_gameboy
     00000004  b_vm_replace_tile_xy               vm_gameboy
     00000004  b_vm_rumble                        vm_gameboy
     00000004  b_vm_set_sprite_mode               vm_gameboy
     00000004  b_vm_set_sprites_visible           vm_gameboy
     00000004  b_vm_timer_prepare                 vm_gameboy
     00000004  b_vm_timer_reset                   vm_gameboy
     00000004  b_vm_timer_set                     vm_gameboy
     00000004  b_vm_timer_stop                    vm_gameboy
     00000004  l__CRASH_HEADER1                
     00000004  l__HEADER_SIO0                  
     00000004  l__HEADER_TIMER0                
ASxxxx Linker V03.00/V05.40 + sdld,  page 6.
Hexadecimal  [32-Bits]

Area                                    Addr        Size        Decimal Bytes (Attributes)
--------------------------------        ----        ----        ------- ----- ------------
.  .ABS.                            00000000    00000000 =           0. bytes (ABS,CON)

      Value  Global                              Global Defined In Module
      -----  --------------------------------   ------------------------
     00000005  ___bank_VM_RTC                     vm_rtc
     00000005  ___bank_VM_SIO                     vm_sio
     00000005  ___bank_bg_placeholder_tilemap     bg_placeholder_tilemap
     00000005  ___bank_scene_0_collisions         scene_0_collisions
     00000005  ___bank_scene_10_actors            scene_10_actors
     00000005  ___bank_scene_11_actors            scene_11_actors
     00000005  ___bank_scene_12_collisions        scene_12_collisions
     00000005  ___bank_scene_13_actors            scene_13_actors
     00000005  ___bank_scene_13_collisions        scene_13_collisions
     00000005  ___bank_scene_14_actors            scene_14_actors
     00000005  ___bank_scene_14_collisions        scene_14_collisions
     00000005  ___bank_scene_15_collisions        scene_15_collisions
     00000005  ___bank_scene_16_collisions        scene_16_collisions
     00000005  ___bank_scene_17_collisions        scene_17_collisions
     00000005  ___bank_scene_6_actors             scene_6_actors
     00000005  ___bank_scene_6_collisions         scene_6_collisions
     00000005  ___bank_scene_7_actors             scene_7_actors
     00000005  ___bank_scene_7_collisions         scene_7_collisions
     00000005  ___bank_scene_9_collisions         scene_9_collisions
     00000005  ___bank_sound_tronimal_sound_eff   sound_tronimal_sound_effect
     00000005  ___bank_sound_tronimal_sound_eff   sound_tronimal_sound_effect
     00000005  ___bank_sound_tronimal_sound_eff   sound_tronimal_sound_effect
     00000005  ___bank_sound_tronimal_sound_eff   sound_tronimal_sound_effect
     00000005  ___bank_sound_tronimal_sound_eff   sound_tronimal_sound_effect
     00000005  ___bank_sound_tronimal_sound_eff   sound_tronimal_sound_effect
     00000005  ___bank_sound_tronimal_sound_eff   sound_tronimal_sound_effect
     00000005  ___bank_sound_tronimal_sound_eff   sound_tronimal_sound_effect
     00000005  ___bank_sound_tronimal_sound_eff   sound_tronimal_sound_effect
     00000005  ___bank_sound_tronimal_sound_eff   sound_tronimal_sound_effect
     00000005  ___bank_sprite_skunk_player_tile   sprite_skunk_player_tileset
     00000005  b_SIO_init                         sio
     00000005  b___HandleCrash_banked             
     00000005  b_atan2                            math_atan2
     00000005  b_fade_applypalettechange          fade_manager
     00000005  b_fade_in                          fade_manager
     00000005  b_fade_in_modal                    fade_manager
     00000005  b_fade_init                        fade_manager
     00000005  b_fade_out                         fade_manager
     00000005  b_fade_out_modal                   fade_manager
     00000005  b_fade_setspeed                    fade_manager
     00000005  b_fade_update                      fade_manager
     00000005  b_gbprinter_detect                 gbprinter
     00000005  b_gbprinter_print_overlay          gbprinter
     00000005  b_trigger_activate_at              trigger
     00000005  b_trigger_activate_at_intersecti   trigger
     00000005  b_trigger_at_intersection          trigger
     00000005  b_trigger_at_tile                  trigger
     00000005  b_trigger_interact                 trigger
     00000005  b_trigger_reset                    trigger
     00000005  b_vm_rtc_get                       vm_rtc
     00000005  b_vm_rtc_latch                     vm_rtc
ASxxxx Linker V03.00/V05.40 + sdld,  page 7.
Hexadecimal  [32-Bits]

Area                                    Addr        Size        Decimal Bytes (Attributes)
--------------------------------        ----        ----        ------- ----- ------------
.  .ABS.                            00000000    00000000 =           0. bytes (ABS,CON)

      Value  Global                              Global Defined In Module
      -----  --------------------------------   ------------------------
     00000005  b_vm_rtc_set                       vm_rtc
     00000005  b_vm_rtc_start                     vm_rtc
     00000005  b_vm_sio_exchange                  vm_sio
     00000005  b_vm_sio_set_mode                  vm_sio
     00000005  l__CRASH_HEADER0                
     00000005  l__HEADER1                      
     00000006  ___bank_VM_MATH                    vm_math
     00000006  ___bank_VM_MUSIC                   vm_music
     00000006  ___bank_VM_PALETTE                 vm_palette
     00000006  ___bank_VM_PROJECTILE              vm_projectiles
     00000006  ___bank_actor_0_update             actor_0_update
     00000006  ___bank_actor_10_update            actor_10_update
     00000006  ___bank_actor_11_update            actor_11_update
     00000006  ___bank_actor_12_update            actor_12_update
     00000006  ___bank_actor_13_update            actor_13_update
     00000006  ___bank_actor_14_update            actor_14_update
     00000006  ___bank_actor_15_update            actor_15_update
     00000006  ___bank_actor_16_update            actor_16_update
     00000006  ___bank_actor_17_update            actor_17_update
     00000006  ___bank_actor_18_update            actor_18_update
     00000006  ___bank_actor_19_update            actor_19_update
     00000006  ___bank_actor_1_update             actor_1_update
     00000006  ___bank_actor_20_update            actor_20_update
     00000006  ___bank_actor_21_update            actor_21_update
     00000006  ___bank_actor_22_update            actor_22_update
     00000006  ___bank_actor_23_update            actor_23_update
     00000006  ___bank_actor_24_update            actor_24_update
     00000006  ___bank_actor_25_update            actor_25_update
     00000006  ___bank_actor_26_update            actor_26_update
     00000006  ___bank_actor_27_update            actor_27_update
     00000006  ___bank_actor_28_update            actor_28_update
     00000006  ___bank_actor_29_update            actor_29_update
     00000006  ___bank_actor_2_update             actor_2_update
     00000006  ___bank_actor_30_update            actor_30_update
     00000006  ___bank_actor_31_update            actor_31_update
     00000006  ___bank_actor_32_update            actor_32_update
     00000006  ___bank_actor_34_update            actor_34_update
     00000006  ___bank_actor_35_update            actor_35_update
     00000006  ___bank_actor_36_update            actor_36_update
     00000006  ___bank_actor_3_update             actor_3_update
     00000006  ___bank_actor_47_update            actor_47_update
     00000006  ___bank_actor_50_update            actor_50_update
     00000006  ___bank_actor_53_update            actor_53_update
     00000006  ___bank_actor_58_update            actor_58_update
     00000006  ___bank_actor_59_update            actor_59_update
     00000006  ___bank_actor_5_update             actor_5_update
     00000006  ___bank_actor_60_update            actor_60_update
     00000006  ___bank_actor_71_update            actor_71_update
     00000006  ___bank_actor_8_update             actor_8_update
     00000006  ___bank_scene_0_init               scene_0_init
     00000006  ___bank_scene_10_init              scene_10_init
ASxxxx Linker V03.00/V05.40 + sdld,  page 8.
Hexadecimal  [32-Bits]

Area                                    Addr        Size        Decimal Bytes (Attributes)
--------------------------------        ----        ----        ------- ----- ------------
.  .ABS.                            00000000    00000000 =           0. bytes (ABS,CON)

      Value  Global                              Global Defined In Module
      -----  --------------------------------   ------------------------
     00000006  ___bank_scene_12_actors            scene_12_actors
     00000006  ___bank_scene_15_init              scene_15_init
     00000006  ___bank_scene_16_init              scene_16_init
     00000006  ___bank_scene_17_init              scene_17_init
     00000006  ___bank_scene_18_collisions        scene_18_collisions
     00000006  ___bank_scene_18_init              scene_18_init
     00000006  ___bank_scene_1_actors             scene_1_actors
     00000006  ___bank_scene_2_collisions         scene_2_collisions
     00000006  ___bank_scene_2_init               scene_2_init
     00000006  ___bank_scene_4_collisions         scene_4_collisions
     00000006  ___bank_scene_4_init               scene_4_init
     00000006  ___bank_scene_5_collisions         scene_5_collisions
     00000006  ___bank_scene_8_collisions         scene_8_collisions
     00000006  ___bank_scene_9_actors             scene_9_actors
     00000006  ___bank_sprite_actor_animated_ti   sprite_actor_animated_tilese
     00000006  ___bank_sprite_log_copy            sprite_log_copy
     00000006  b_itoa_fmt                         vm_ui_a
     00000006  b_music_events_poll                music_manager
     00000006  b_music_init_driver                music_manager
     00000006  b_music_init_events                music_manager
     00000006  b_vm_cos_scale                     vm_math
     00000006  b_vm_load_palette                  vm_palette
     00000006  b_vm_music_mute                    vm_music
     00000006  b_vm_music_play                    vm_music
     00000006  b_vm_music_routine                 vm_music
     00000006  b_vm_music_setpos                  vm_music
     00000006  b_vm_music_stop                    vm_music
     00000006  b_vm_projectile_launch             vm_projectiles
     00000006  b_vm_projectile_load_type          vm_projectiles
     00000006  b_vm_sfx_play                      vm_music
     00000006  b_vm_sin_scale                     vm_math
     00000006  b_vm_sound_mastervol               vm_music
     00000006  l__HEADER8                      
     00000007  ___bank_VM_GBPRINTER               vm_gbprinter
     00000007  ___bank_VM_LOAD_SAVE               vm_load_save
     00000007  ___bank_VM_SCENE                   vm_scene
     00000007  ___bank_actor_0_interact           actor_0_interact
     00000007  ___bank_actor_10_interact          actor_10_interact
     00000007  ___bank_actor_12_interact          actor_12_interact
     00000007  ___bank_actor_13_interact          actor_13_interact
     00000007  ___bank_actor_14_interact          actor_14_interact
     00000007  ___bank_actor_15_interact          actor_15_interact
     00000007  ___bank_actor_16_interact          actor_16_interact
     00000007  ___bank_actor_17_interact          actor_17_interact
     00000007  ___bank_actor_18_interact          actor_18_interact
     00000007  ___bank_actor_1_interact           actor_1_interact
     00000007  ___bank_actor_20_interact          actor_20_interact
     00000007  ___bank_actor_21_interact          actor_21_interact
     00000007  ___bank_actor_22_interact          actor_22_interact
     00000007  ___bank_actor_23_interact          actor_23_interact
     00000007  ___bank_actor_24_interact          actor_24_interact
ASxxxx Linker V03.00/V05.40 + sdld,  page 9.
Hexadecimal  [32-Bits]

Area                                    Addr        Size        Decimal Bytes (Attributes)
--------------------------------        ----        ----        ------- ----- ------------
.  .ABS.                            00000000    00000000 =           0. bytes (ABS,CON)

      Value  Global                              Global Defined In Module
      -----  --------------------------------   ------------------------
     00000007  ___bank_actor_25_interact          actor_25_interact
     00000007  ___bank_actor_26_interact          actor_26_interact
     00000007  ___bank_actor_27_interact          actor_27_interact
     00000007  ___bank_actor_28_interact          actor_28_interact
     00000007  ___bank_actor_29_interact          actor_29_interact
     00000007  ___bank_actor_2_interact           actor_2_interact
     00000007  ___bank_actor_31_interact          actor_31_interact
     00000007  ___bank_actor_32_interact          actor_32_interact
     00000007  ___bank_actor_33_interact          actor_33_interact
     00000007  ___bank_actor_33_update            actor_33_update
     00000007  ___bank_actor_34_interact          actor_34_interact
     00000007  ___bank_actor_35_interact          actor_35_interact
     00000007  ___bank_actor_37_interact          actor_37_interact
     00000007  ___bank_actor_37_update            actor_37_update
     00000007  ___bank_actor_38_interact          actor_38_interact
     00000007  ___bank_actor_38_update            actor_38_update
     00000007  ___bank_actor_39_interact          actor_39_interact
     00000007  ___bank_actor_39_update            actor_39_update
     00000007  ___bank_actor_3_interact           actor_3_interact
     00000007  ___bank_actor_40_interact          actor_40_interact
     00000007  ___bank_actor_40_update            actor_40_update
     00000007  ___bank_actor_41_interact          actor_41_interact
     00000007  ___bank_actor_41_update            actor_41_update
     00000007  ___bank_actor_42_interact          actor_42_interact
     00000007  ___bank_actor_42_update            actor_42_update
     00000007  ___bank_actor_43_interact          actor_43_interact
     00000007  ___bank_actor_43_update            actor_43_update
     00000007  ___bank_actor_44_interact          actor_44_interact
     00000007  ___bank_actor_44_update            actor_44_update
     00000007  ___bank_actor_45_interact          actor_45_interact
     00000007  ___bank_actor_45_update            actor_45_update
     00000007  ___bank_actor_46_interact          actor_46_interact
     00000007  ___bank_actor_46_update            actor_46_update
     00000007  ___bank_actor_48_interact          actor_48_interact
     00000007  ___bank_actor_48_update            actor_48_update
     00000007  ___bank_actor_49_interact          actor_49_interact
     00000007  ___bank_actor_49_update            actor_49_update
     00000007  ___bank_actor_4_interact           actor_4_interact
     00000007  ___bank_actor_4_update             actor_4_update
     00000007  ___bank_actor_50_interact          actor_50_interact
     00000007  ___bank_actor_51_interact          actor_51_interact
     00000007  ___bank_actor_51_update            actor_51_update
     00000007  ___bank_actor_52_interact          actor_52_interact
     00000007  ___bank_actor_52_update            actor_52_update
     00000007  ___bank_actor_54_interact          actor_54_interact
     00000007  ___bank_actor_54_update            actor_54_update
     00000007  ___bank_actor_55_interact          actor_55_interact
     00000007  ___bank_actor_55_update            actor_55_update
     00000007  ___bank_actor_56_interact          actor_56_interact
     00000007  ___bank_actor_56_update            actor_56_update
     00000007  ___bank_actor_57_interact          actor_57_interact
ASxxxx Linker V03.00/V05.40 + sdld,  page 10.
Hexadecimal  [32-Bits]

Area                                    Addr        Size        Decimal Bytes (Attributes)
--------------------------------        ----        ----        ------- ----- ------------
.  .ABS.                            00000000    00000000 =           0. bytes (ABS,CON)

      Value  Global                              Global Defined In Module
      -----  --------------------------------   ------------------------
     00000007  ___bank_actor_57_update            actor_57_update
     00000007  ___bank_actor_58_interact          actor_58_interact
     00000007  ___bank_actor_59_interact          actor_59_interact
     00000007  ___bank_actor_61_interact          actor_61_interact
     00000007  ___bank_actor_61_update            actor_61_update
     00000007  ___bank_actor_62_interact          actor_62_interact
     00000007  ___bank_actor_62_update            actor_62_update
     00000007  ___bank_actor_63_interact          actor_63_interact
     00000007  ___bank_actor_63_update            actor_63_update
     00000007  ___bank_actor_64_interact          actor_64_interact
     00000007  ___bank_actor_64_update            actor_64_update
     00000007  ___bank_actor_65_interact          actor_65_interact
     00000007  ___bank_actor_65_update            actor_65_update
     00000007  ___bank_actor_66_interact          actor_66_interact
     00000007  ___bank_actor_66_update            actor_66_update
     00000007  ___bank_actor_67_interact          actor_67_interact
     00000007  ___bank_actor_67_update            actor_67_update
     00000007  ___bank_actor_68_interact          actor_68_interact
     00000007  ___bank_actor_68_update            actor_68_update
     00000007  ___bank_actor_69_interact          actor_69_interact
     00000007  ___bank_actor_69_update            actor_69_update
     00000007  ___bank_actor_6_interact           actor_6_interact
     00000007  ___bank_actor_6_update             actor_6_update
     00000007  ___bank_actor_70_interact          actor_70_interact
     00000007  ___bank_actor_70_update            actor_70_update
     00000007  ___bank_actor_7_interact           actor_7_interact
     00000007  ___bank_actor_7_update             actor_7_update
     00000007  ___bank_actor_8_interact           actor_8_interact
     00000007  ___bank_actor_9_interact           actor_9_interact
     00000007  ___bank_actor_9_update             actor_9_update
     00000007  ___bank_bg_placeholder_tileset     bg_placeholder_tileset
     00000007  ___bank_frame_image                frame_image
     00000007  ___bank_scene_0                    scene_0
     00000007  ___bank_scene_1                    scene_1
     00000007  ___bank_scene_10                   scene_10
     00000007  ___bank_scene_10_triggers          scene_10_triggers
     00000007  ___bank_scene_11                   scene_11
     00000007  ___bank_scene_11_triggers          scene_11_triggers
     00000007  ___bank_scene_12                   scene_12
     00000007  ___bank_scene_12_init              scene_12_init
     00000007  ___bank_scene_12_triggers          scene_12_triggers
     00000007  ___bank_scene_13                   scene_13
     00000007  ___bank_scene_13_triggers          scene_13_triggers
     00000007  ___bank_scene_14                   scene_14
     00000007  ___bank_scene_14_triggers          scene_14_triggers
     00000007  ___bank_scene_15                   scene_15
     00000007  ___bank_scene_16                   scene_16
     00000007  ___bank_scene_17                   scene_17
     00000007  ___bank_scene_18                   scene_18
     00000007  ___bank_scene_1_init               scene_1_init
     00000007  ___bank_scene_1_triggers           scene_1_triggers
ASxxxx Linker V03.00/V05.40 + sdld,  page 11.
Hexadecimal  [32-Bits]

Area                                    Addr        Size        Decimal Bytes (Attributes)
--------------------------------        ----        ----        ------- ----- ------------
.  .ABS.                            00000000    00000000 =           0. bytes (ABS,CON)

      Value  Global                              Global Defined In Module
      -----  --------------------------------   ------------------------
     00000007  ___bank_scene_2                    scene_2
     00000007  ___bank_scene_4                    scene_4
     00000007  ___bank_scene_5                    scene_5
     00000007  ___bank_scene_6                    scene_6
     00000007  ___bank_scene_6_triggers           scene_6_triggers
     00000007  ___bank_scene_7                    scene_7
     00000007  ___bank_scene_7_triggers           scene_7_triggers
     00000007  ___bank_scene_8                    scene_8
     00000007  ___bank_scene_8_init               scene_8_init
     00000007  ___bank_scene_9                    scene_9
     00000007  ___bank_scene_9_init               scene_9_init
     00000007  ___bank_scene_9_triggers           scene_9_triggers
     00000007  ___bank_sprite_actor_animated      sprite_actor_animated
     00000007  ___bank_sprite_dog                 sprite_dog
     00000007  ___bank_sprite_dog_tileset         sprite_dog_tileset
     00000007  ___bank_sprite_fcarrr              sprite_fcarrr
     00000007  ___bank_sprite_fcarrr_tileset      sprite_fcarrr_tileset
     00000007  ___bank_sprite_fox                 sprite_fox
     00000007  ___bank_sprite_fox_tileset         sprite_fox_tileset
     00000007  ___bank_sprite_log                 sprite_log
     00000007  ___bank_sprite_log_copy_tileset    sprite_log_copy_tileset
     00000007  ___bank_sprite_log_tileset         sprite_log_tileset
     00000007  ___bank_sprite_skateboard_man_sp   sprite_skateboard_man_sprit
     00000007  ___bank_sprite_skateboard_man_sp   sprite_skateboard_man_sprit_
     00000007  ___bank_sprite_skunk_player        sprite_skunk_player
     00000007  ___bank_tileset_default_frame      tileset_default_frame
     00000007  ___bank_trigger_0_interact         trigger_0_interact
     00000007  ___bank_trigger_11_interact        trigger_11_interact
     00000007  ___bank_trigger_12_interact        trigger_12_interact
     00000007  ___bank_trigger_13_interact        trigger_13_interact
     00000007  ___bank_trigger_14_interact        trigger_14_interact
     00000007  ___bank_trigger_15_interact        trigger_15_interact
     00000007  ___bank_trigger_16_interact        trigger_16_interact
     00000007  ___bank_trigger_1_interact         trigger_1_interact
     00000007  ___bank_trigger_20_interact        trigger_20_interact
     00000007  ___bank_trigger_21_interact        trigger_21_interact
     00000007  ___bank_trigger_22_interact        trigger_22_interact
     00000007  ___bank_trigger_23_interact        trigger_23_interact
     00000007  ___bank_trigger_25_interact        trigger_25_interact
     00000007  ___bank_trigger_26_interact        trigger_26_interact
     00000007  ___bank_trigger_29_interact        trigger_29_interact
     00000007  ___bank_trigger_2_interact         trigger_2_interact
     00000007  ___bank_trigger_32_interact        trigger_32_interact
     00000007  ___bank_trigger_33_interact        trigger_33_interact
     00000007  ___bank_trigger_34_interact        trigger_34_interact
     00000007  ___bank_trigger_35_interact        trigger_35_interact
     00000007  ___bank_trigger_36_interact        trigger_36_interact
     00000007  ___bank_trigger_3_interact         trigger_3_interact
     00000007  ___bank_trigger_40_interact        trigger_40_interact
     00000007  ___bank_trigger_41_interact        trigger_41_interact
     00000007  ___bank_trigger_42_interact        trigger_42_interact
ASxxxx Linker V03.00/V05.40 + sdld,  page 12.
Hexadecimal  [32-Bits]

Area                                    Addr        Size        Decimal Bytes (Attributes)
--------------------------------        ----        ----        ------- ----- ------------
.  .ABS.                            00000000    00000000 =           0. bytes (ABS,CON)

      Value  Global                              Global Defined In Module
      -----  --------------------------------   ------------------------
     00000007  ___bank_trigger_43_interact        trigger_43_interact
     00000007  ___bank_trigger_46_interact        trigger_46_interact
     00000007  ___bank_trigger_47_interact        trigger_47_interact
     00000007  ___bank_trigger_48_interact        trigger_48_interact
     00000007  ___bank_trigger_49_interact        trigger_49_interact
     00000007  ___bank_trigger_56_interact        trigger_56_interact
     00000007  ___bank_trigger_57_interact        trigger_57_interact
     00000007  ___bank_trigger_58_interact        trigger_58_interact
     00000007  ___bank_trigger_59_interact        trigger_59_interact
     00000007  ___bank_trigger_5_interact         trigger_5_interact
     00000007  ___bank_trigger_63_interact        trigger_63_interact
     00000007  ___bank_trigger_64_interact        trigger_64_interact
     00000007  ___bank_trigger_65_interact        trigger_65_interact
     00000007  ___bank_trigger_66_interact        trigger_66_interact
     00000007  ___bank_trigger_70_interact        trigger_70_interact
     00000007  ___bank_trigger_7_interact         trigger_7_interact
     00000007  ___bank_trigger_8_interact         trigger_8_interact
     00000007  b_events_init                      events
     00000007  b_scroll_rect                      
     00000007  b_timers_init                      events
     00000007  b_vm_print_detect                  vm_gbprinter
     00000007  b_vm_print_overlay                 vm_gbprinter
     00000007  b_vm_save_clear                    vm_load_save
     00000007  b_vm_save_peek                     vm_load_save
     00000007  b_vm_scene_pop                     vm_scene
     00000007  b_vm_scene_pop_all                 vm_scene
     00000007  b_vm_scene_push                    vm_scene
     00000007  b_vm_scene_stack_reset             vm_scene
     00000007  l__HEADER2                      
     00000008  ___bank_actor_11_interact          actor_11_interact
     00000008  ___bank_actor_19_interact          actor_19_interact
     00000008  ___bank_actor_30_interact          actor_30_interact
     00000008  ___bank_actor_36_interact          actor_36_interact
     00000008  ___bank_actor_47_interact          actor_47_interact
     00000008  ___bank_actor_53_interact          actor_53_interact
     00000008  ___bank_actor_5_interact           actor_5_interact
     00000008  ___bank_actor_60_interact          actor_60_interact
     00000008  ___bank_actor_71_interact          actor_71_interact
     00000008  ___bank_bg_map2                    bg_map2
     00000008  ___bank_bg_map3                    bg_map3
     00000008  ___bank_bg_mmmmmmmmmmmmmap         bg_mmmmmmmmmmmmmap
     00000008  ___bank_bg_placeholder             bg_placeholder
     00000008  ___bank_bootstrap_script           
     00000008  ___bank_cursor_image               cursor_image
     00000008  ___bank_scene_10_sprites           scene_10_sprites
     00000008  ___bank_scene_11_init              scene_11_init
     00000008  ___bank_scene_11_sprites           scene_11_sprites
     00000008  ___bank_scene_12_sprites           scene_12_sprites
     00000008  ___bank_scene_13_init              scene_13_init
     00000008  ___bank_scene_13_sprites           scene_13_sprites
     00000008  ___bank_scene_14_init              scene_14_init
ASxxxx Linker V03.00/V05.40 + sdld,  page 13.
Hexadecimal  [32-Bits]

Area                                    Addr        Size        Decimal Bytes (Attributes)
--------------------------------        ----        ----        ------- ----- ------------
.  .ABS.                            00000000    00000000 =           0. bytes (ABS,CON)

      Value  Global                              Global Defined In Module
      -----  --------------------------------   ------------------------
     00000008  ___bank_scene_14_sprites           scene_14_sprites
     00000008  ___bank_scene_1_sprites            scene_1_sprites
     00000008  ___bank_scene_6_init               scene_6_init
     00000008  ___bank_scene_6_sprites            scene_6_sprites
     00000008  ___bank_scene_7_init               scene_7_init
     00000008  ___bank_scene_7_sprites            scene_7_sprites
     00000008  ___bank_scene_9_sprites            scene_9_sprites
     00000008  ___bank_script_engine_init         
     00000008  ___bank_sound_legacy_0             sound_legacy_0
     00000008  ___bank_sound_legacy_0_0           sound_legacy_0_0
     00000008  ___bank_sound_legacy_0_1           sound_legacy_0_1
     00000008  ___bank_sound_legacy_0_2           sound_legacy_0_2
     00000008  ___bank_sound_legacy_0_3           sound_legacy_0_3
     00000008  ___bank_spritesheet_none           spritesheet_none
     00000008  ___bank_trigger_10_interact        trigger_10_interact
     00000008  ___bank_trigger_17_interact        trigger_17_interact
     00000008  ___bank_trigger_18_interact        trigger_18_interact
     00000008  ___bank_trigger_19_interact        trigger_19_interact
     00000008  ___bank_trigger_27_interact        trigger_27_interact
     00000008  ___bank_trigger_28_interact        trigger_28_interact
     00000008  ___bank_trigger_30_interact        trigger_30_interact
     00000008  ___bank_trigger_31_interact        trigger_31_interact
     00000008  ___bank_trigger_37_interact        trigger_37_interact
     00000008  ___bank_trigger_38_interact        trigger_38_interact
     00000008  ___bank_trigger_39_interact        trigger_39_interact
     00000008  ___bank_trigger_45_interact        trigger_45_interact
     00000008  ___bank_trigger_4_interact         trigger_4_interact
     00000008  ___bank_trigger_50_interact        trigger_50_interact
     00000008  ___bank_trigger_51_interact        trigger_51_interact
     00000008  ___bank_trigger_52_interact        trigger_52_interact
     00000008  ___bank_trigger_53_interact        trigger_53_interact
     00000008  ___bank_trigger_54_interact        trigger_54_interact
     00000008  ___bank_trigger_55_interact        trigger_55_interact
     00000008  ___bank_trigger_60_interact        trigger_60_interact
     00000008  ___bank_trigger_61_interact        trigger_61_interact
     00000008  ___bank_trigger_62_interact        trigger_62_interact
     00000008  ___bank_trigger_68_interact        trigger_68_interact
     00000008  ___bank_trigger_69_interact        trigger_69_interact
     00000008  ___bank_trigger_6_interact         trigger_6_interact
     00000008  ___bank_trigger_71_interact        trigger_71_interact
     00000008  ___bank_trigger_72_interact        trigger_72_interact
     00000008  ___bank_trigger_73_interact        trigger_73_interact
     00000008  ___bank_trigger_74_interact        trigger_74_interact
     00000008  ___bank_trigger_75_interact        trigger_75_interact
     00000008  ___bank_trigger_76_interact        trigger_76_interact
     00000008  ___bank_trigger_77_interact        trigger_77_interact
     00000008  ___bank_trigger_9_interact         trigger_9_interact
     00000008  ___mute_mask_sound_legacy_0        sound_legacy_0
     00000008  ___mute_mask_sound_legacy_0_1      sound_legacy_0_1
     00000008  ___mute_mask_sound_legacy_0_2      sound_legacy_0_2
     00000008  ___mute_mask_sound_legacy_0_3      sound_legacy_0_3
ASxxxx Linker V03.00/V05.40 + sdld,  page 14.
Hexadecimal  [32-Bits]

Area                                    Addr        Size        Decimal Bytes (Attributes)
--------------------------------        ----        ----        ------- ----- ------------
.  .ABS.                            00000000    00000000 =           0. bytes (ABS,CON)

      Value  Global                              Global Defined In Module
      -----  --------------------------------   ------------------------
     00000008  ___mute_mask_sound_tronimal_soun   sound_tronimal_sound_effect
     00000008  ___mute_mask_sound_tronimal_soun   sound_tronimal_sound_effect
     00000008  b_camera_init                      camera
     00000008  b_input_init                       input
     00000008  b_logo_init                        logo
     00000008  b_logo_update                      logo
     00000008  b_palette_init                     palette
     00000008  l__HEADER3                      
     0000000A  ___mute_mask_sound_tronimal_soun   sound_tronimal_sound_effect
     0000000C  __start_save                    
     00000018  l__INITIALIZED                  
     00000018  l__INITIALIZER                  
     00000027  l__GSINIT                       
     00000030  l__HEADER7                      
     00000060  l__HEADER4                      
     000000AB  l__HEADER11                     
     000001CB  l__CRASH_SCRATCH2               
     00000200  s__CODE                         
     00000605  l__CODE_8                       
     00000E4C  l__CODE                         
     0000104C  s__HOME                         
     00001971  l__DATA                         
     00002000  _rROMB0                            
     00002C6D  l__HOME                         
     00003000  _rROMB1                            
     00003CB9  s__BASE                         
     00003CB9  s__CODE_0                       
     00003CB9  s__INITIALIZER                  
     00003CB9  s__LIT                          
     00003CD1  s__GSINIT                       
     00003CF8  s__GSFINAL                      
     00003FFB  l__CODE_7                       
     00003FFC  l__CODE_2                       
     00003FFF  l__CODE_4                       
     00003FFF  l__CODE_6                       
     00004000  _RTC_SELECT_REG                    vm_rtc
     00004000  _rRAMB                             
     00004000  l__CODE_1                       
     00004000  l__CODE_3                       
     00004000  l__CODE_5                       
     00006000  _RTC_LATCH_REG                     vm_rtc
     00008000  __VRAM                             
     00008000  __VRAM8000                         
     00008800  __VRAM8800                         
     00009000  __VRAM9000                         
     00009800  __SCRN0                            
     00009C00  __SCRN1                            
     0000A000  _RTC_VALUE_REG                     vm_rtc
     0000A000  __SRAM                             
     0000C000  __RAM                              
     0000C000  _shadow_OAM                     
ASxxxx Linker V03.00/V05.40 + sdld,  page 15.
Hexadecimal  [32-Bits]

Area                                    Addr        Size        Decimal Bytes (Attributes)
--------------------------------        ----        ----        ------- ----- ------------
.  .ABS.                            00000000    00000000 =           0. bytes (ABS,CON)

      Value  Global                              Global Defined In Module
      -----  --------------------------------   ------------------------
     0000C0A0  s__DATA                         
     0000D000  __RAMBANK                          
     0000DA11  s__BSS                          
     0000DA11  s__INITIALIZED                  
     0000DA29  s__HEAP                         
     0000DA29  s__HEAP_END                     
     0000DF00  .STACK                          
     0000DF00  _shadow_OAM2                       absolute
     0000DFA0  _BkgPalette                        absolute
     0000DFE0  _vwf_tile_data                     absolute
     0000FE00  __OAMRAM                           
     0000FF00  _P1_REG                            
     0000FF00  __IO                               
     0000FF01  _SB_REG                            
     0000FF02  _SC_REG                            
     0000FF04  _DIV_REG                           
     0000FF05  _TIMA_REG                          
     0000FF06  _TMA_REG                           
     0000FF07  _TAC_REG                           
     0000FF0F  _IF_REG                            
     0000FF10  _NR10_REG                          
     0000FF11  _NR11_REG                          
     0000FF12  _NR12_REG                          
     0000FF13  _NR13_REG                          
     0000FF14  _NR14_REG                          
     0000FF16  _NR21_REG                          
     0000FF17  _NR22_REG                          
     0000FF18  _NR23_REG                          
     0000FF19  _NR24_REG                          
     0000FF1A  _NR30_REG                          
     0000FF1B  _NR31_REG                          
     0000FF1C  _NR32_REG                          
     0000FF1D  _NR33_REG                          
     0000FF1E  _NR34_REG                          
     0000FF20  _NR41_REG                          
     0000FF21  _NR42_REG                          
     0000FF22  _NR43_REG                          
     0000FF23  _NR44_REG                          
     0000FF24  _NR50_REG                          
     0000FF25  _NR51_REG                          
     0000FF26  _NR52_REG                          
     0000FF30  _AUD3WAVE                          
     0000FF30  _PCM_SAMPLE                        
     0000FF30  __AUD3WAVERAM                      
     0000FF40  _LCDC_REG                          
     0000FF41  _STAT_REG                          
     0000FF42  _SCY_REG                           
     0000FF43  _SCX_REG                           
     0000FF44  _LY_REG                            
     0000FF45  _LYC_REG                           
     0000FF46  _DMA_REG                           
ASxxxx Linker V03.00/V05.40 + sdld,  page 16.
Hexadecimal  [32-Bits]

Area                                    Addr        Size        Decimal Bytes (Attributes)
--------------------------------        ----        ----        ------- ----- ------------
.  .ABS.                            00000000    00000000 =           0. bytes (ABS,CON)

      Value  Global                              Global Defined In Module
      -----  --------------------------------   ------------------------
     0000FF47  _BGP_REG                           
     0000FF48  _OBP0_REG                          
     0000FF49  _OBP1_REG                          
     0000FF4A  _WY_REG                            
     0000FF4B  _WX_REG                            
     0000FF4D  _KEY1_REG                          
     0000FF4F  _VBK_REG                           
     0000FF51  _HDMA1_REG                         
     0000FF52  _HDMA2_REG                         
     0000FF53  _HDMA3_REG                         
     0000FF54  _HDMA4_REG                         
     0000FF55  _HDMA5_REG                         
     0000FF56  _RP_REG                            
     0000FF68  _BCPS_REG                          
     0000FF69  _BCPD_REG                          
     0000FF6A  _OCPS_REG                          
     0000FF6B  _OCPD_REG                          
     0000FF70  _SVBK_REG                          
     0000FF76  _PCM12_REG                         
     0000FF77  _PCM34_REG                         
     0000FF80  .refresh_OAM                    
     0000FF80  __HRAM                             
     0000FFFF  _IE_REG                            
     00014000  s__CODE_1                       
     00024000  s__CODE_2                       
     00034000  s__CODE_3                       
     00044000  s__CODE_4                       
     00054000  s__CODE_5                       
     00064000  s__CODE_6                       
     00074000  s__CODE_7                       
     00084000  s__CODE_8                       
ASxxxx Linker V03.00/V05.40 + sdld,  page 17.
Hexadecimal  [32-Bits]

Area                                    Addr        Size        Decimal Bytes (Attributes)
--------------------------------        ----        ----        ------- ----- ------------
_CODE                               00000200    00000E4C =        3660. bytes (REL,CON)

      Value  Global                              Global Defined In Module
      -----  --------------------------------   ------------------------
     00000200  ___HandleCrash                     
     0000020A  _SIO_send_byte                     
     0000021D  _SIO_receive                       
     0000022E  _GetWinAddr                        
     00000236  _GetBkgAddr                        
     00000244  _state_init                        
     00000249  _state_update                      
     0000026B  _ui_time_masks                     
     00000273  _ui_print_shift_char               
     000002F6  _ui_draw_frame_row                 
     000002FF  .ui_draw_frame_row                 
     00000328  _script_cmds                       vm_instructions
     00000560  _save_signature                    game_signature
     00000564  _start_scene_x                     
     00000566  _start_scene_y                     
     00000568  _start_scene_dir                   
     00000569  _start_scene                       
     0000056C  _start_player_move_speed           
     0000056D  _start_player_anim_tick            
     0000056E  _ui_fonts                          
     00000571  _core_reset_hook                   main
     00000579  _main                              main
     00000581  _state_start_fns                   
     00000587  _state_update_fns                  
     0000058D  _hUGE_init                         hUGEDriver_obj
     0000058F  hUGE_init                          hUGEDriver_obj
     000005E5  _hUGE_mute_channel                 hUGEDriver_obj
     000005E7  hUGE_mute_channel                  hUGEDriver_obj
     00000835  _hUGE_set_position                 hUGEDriver_obj
     00000837  hUGE_set_position                  hUGEDriver_obj
     000009FC  _hUGE_dosound                      hUGEDriver_obj
     000009FC  hUGE_dosound                       hUGEDriver_obj
     00000D28  _get_vram_byte                     
     00000D30  _get_win_tile_xy                   
     00000D38  _get_bkg_tile_xy                   
     00000D5F  _hide_sprites_range                Metasprites
     00000D8E  __mulsuchar                        mul
     00000D91  __muluschar                        mul
     00000D9A  __mulschar                         mul
     00000DA2  __mulint                           mul
     00000DC1  __muluchar                         mul
     00000DD3  _set_vram_byte                     
     00000DDC  _set_win_tile_xy                   
     00000DE5  _set_bkg_tile_xy                   
     00000E14  .sgb_check                         
     00000E14  _sgb_check                         
     00000E5C  _sgb_transfer                      
     00000E61  .sgb_transfer                      
     00000EA2  .copy_vram                         
     00000EA8  _get_data                          
ASxxxx Linker V03.00/V05.40 + sdld,  page 18.
Hexadecimal  [32-Bits]

Area                                    Addr        Size        Decimal Bytes (Attributes)
--------------------------------        ----        ----        ------- ----- ------------
_CODE                               00000200    00000E4C =        3660. bytes (REL,CON)

      Value  Global                              Global Defined In Module
      -----  --------------------------------   ------------------------
     00000EA8  _set_data                          
     00000EA8  _vmemcpy                           
     00000EF6  ___move_metasprite                 Metasprites
     00000F33  ___memcpy                          
     00000F33  _memcpy                            
     00000F65  __divsuchar                        divmod
     00000F6B  __modsuchar                        divmod
     00000F74  __divuschar                        divmod
     00000F7D  __moduschar                        divmod
     00000F89  __divschar                         divmod
     00000F8E  __modschar                         divmod
     00000F95  __divsint                          divmod
     00000F9E  __modsint                          divmod
     00000FAA  __divuchar                         divmod
     00000FAF  __moduchar                         divmod
     00000FB6  __divuint                          divmod
     00000FBF  __moduint                          divmod
     00000FCB  .div8                              divmod
     00000FCB  .mod8                              divmod
     00000FD3  .div16                             divmod
     00000FD3  .mod16                             divmod
     00001009  .divu8                             divmod
     00001009  .modu8                             divmod
     0000100C  .divu16                            divmod
     0000100C  .modu16                            divmod
ASxxxx Linker V03.00/V05.40 + sdld,  page 19.
Hexadecimal  [32-Bits]

Area                                    Addr        Size        Decimal Bytes (Attributes)
--------------------------------        ----        ----        ------- ----- ------------
_HEADER0                            00000000    00000001 =           1. bytes (ABS,CON)

      Value  Global                              Global Defined In Module
      -----  --------------------------------   ------------------------
     00000020  .call_hl                           Runtime

ASxxxx Linker V03.00/V05.40 + sdld,  page 20.
Hexadecimal  [32-Bits]

Area                                    Addr        Size        Decimal Bytes (Attributes)
--------------------------------        ----        ----        ------- ----- ------------
_HEADER1                            00000000    00000005 =           5. bytes (ABS,CON)

      Value  Global                              Global Defined In Module
      -----  --------------------------------   ------------------------
     00000028  .MemsetSmall                       Runtime

ASxxxx Linker V03.00/V05.40 + sdld,  page 21.
Hexadecimal  [32-Bits]

Area                                    Addr        Size        Decimal Bytes (Attributes)
--------------------------------        ----        ----        ------- ----- ------------
_HEADER2                            00000000    00000007 =           7. bytes (ABS,CON)

      Value  Global                              Global Defined In Module
      -----  --------------------------------   ------------------------
     00000030  .MemcpySmall                       Runtime

ASxxxx Linker V03.00/V05.40 + sdld,  page 22.
Hexadecimal  [32-Bits]

Area                                    Addr        Size        Decimal Bytes (Attributes)
--------------------------------        ----        ----        ------- ----- ------------
_HEADER3                            00000000    00000008 =           8. bytes (ABS,CON)

      Value  Global                              Global Defined In Module
      -----  --------------------------------   ------------------------
ASxxxx Linker V03.00/V05.40 + sdld,  page 23.
Hexadecimal  [32-Bits]

Area                                    Addr        Size        Decimal Bytes (Attributes)
--------------------------------        ----        ----        ------- ----- ------------
_HEADER4                            00000000    00000060 =          96. bytes (ABS,CON)

      Value  Global                              Global Defined In Module
      -----  --------------------------------   ------------------------
     00000080  .int                               Runtime
     0000008F  _wait_int_handler                  Runtime
     0000009C  __standard_VBL_handler             Runtime
     000000AB  _refresh_OAM                       Runtime
     000000CC  _set_interrupts                    Runtime

ASxxxx Linker V03.00/V05.40 + sdld,  page 24.
Hexadecimal  [32-Bits]

Area                                    Addr        Size        Decimal Bytes (Attributes)
--------------------------------        ----        ----        ------- ----- ------------
_HEADER5                            00000000    00000001 =           1. bytes (ABS,CON)

      Value  Global                              Global Defined In Module
      -----  --------------------------------   ------------------------
ASxxxx Linker V03.00/V05.40 + sdld,  page 25.
Hexadecimal  [32-Bits]

Area                                    Addr        Size        Decimal Bytes (Attributes)
--------------------------------        ----        ----        ------- ----- ------------
_HEADER6                            00000000    00000002 =           2. bytes (ABS,CON)

      Value  Global                              Global Defined In Module
      -----  --------------------------------   ------------------------
ASxxxx Linker V03.00/V05.40 + sdld,  page 26.
Hexadecimal  [32-Bits]

Area                                    Addr        Size        Decimal Bytes (Attributes)
--------------------------------        ----        ----        ------- ----- ------------
_HEADER7                            00000000    00000030 =          48. bytes (ABS,CON)

      Value  Global                              Global Defined In Module
      -----  --------------------------------   ------------------------
ASxxxx Linker V03.00/V05.40 + sdld,  page 27.
Hexadecimal  [32-Bits]

Area                                    Addr        Size        Decimal Bytes (Attributes)
--------------------------------        ----        ----        ------- ----- ------------
_HEADER8                            00000000    00000006 =           6. bytes (ABS,CON)

      Value  Global                              Global Defined In Module
      -----  --------------------------------   ------------------------
ASxxxx Linker V03.00/V05.40 + sdld,  page 28.
Hexadecimal  [32-Bits]

Area                                    Addr        Size        Decimal Bytes (Attributes)
--------------------------------        ----        ----        ------- ----- ------------
_HEADER9                            00000000    00000003 =           3. bytes (ABS,CON)

      Value  Global                              Global Defined In Module
      -----  --------------------------------   ------------------------
ASxxxx Linker V03.00/V05.40 + sdld,  page 29.
Hexadecimal  [32-Bits]

Area                                    Addr        Size        Decimal Bytes (Attributes)
--------------------------------        ----        ----        ------- ----- ------------
_HEADERa                            00000000    00000001 =           1. bytes (ABS,CON)

      Value  Global                              Global Defined In Module
      -----  --------------------------------   ------------------------
ASxxxx Linker V03.00/V05.40 + sdld,  page 30.
Hexadecimal  [32-Bits]

Area                                    Addr        Size        Decimal Bytes (Attributes)
--------------------------------        ----        ----        ------- ----- ------------
_HEADERb                            00000000    00000001 =           1. bytes (ABS,CON)

      Value  Global                              Global Defined In Module
      -----  --------------------------------   ------------------------
ASxxxx Linker V03.00/V05.40 + sdld,  page 31.
Hexadecimal  [32-Bits]

Area                                    Addr        Size        Decimal Bytes (Attributes)
--------------------------------        ----        ----        ------- ----- ------------
_HEADERc                            00000000    00000001 =           1. bytes (ABS,CON)

      Value  Global                              Global Defined In Module
      -----  --------------------------------   ------------------------
ASxxxx Linker V03.00/V05.40 + sdld,  page 32.
Hexadecimal  [32-Bits]

Area                                    Addr        Size        Decimal Bytes (Attributes)
--------------------------------        ----        ----        ------- ----- ------------
_HEADERd                            00000000    00000002 =           2. bytes (ABS,CON)

      Value  Global                              Global Defined In Module
      -----  --------------------------------   ------------------------
ASxxxx Linker V03.00/V05.40 + sdld,  page 33.
Hexadecimal  [32-Bits]

Area                                    Addr        Size        Decimal Bytes (Attributes)
--------------------------------        ----        ----        ------- ----- ------------
_HEADERe                            00000000    00000001 =           1. bytes (ABS,CON)

      Value  Global                              Global Defined In Module
      -----  --------------------------------   ------------------------
ASxxxx Linker V03.00/V05.40 + sdld,  page 34.
Hexadecimal  [32-Bits]

Area                                    Addr        Size        Decimal Bytes (Attributes)
--------------------------------        ----        ----        ------- ----- ------------
_HEADERf                            00000000    00000001 =           1. bytes (ABS,CON)

      Value  Global                              Global Defined In Module
      -----  --------------------------------   ------------------------
ASxxxx Linker V03.00/V05.40 + sdld,  page 35.
Hexadecimal  [32-Bits]

Area                                    Addr        Size        Decimal Bytes (Attributes)
--------------------------------        ----        ----        ------- ----- ------------
_HEADER10                           00000000    00000002 =           2. bytes (ABS,CON)

      Value  Global                              Global Defined In Module
      -----  --------------------------------   ------------------------
ASxxxx Linker V03.00/V05.40 + sdld,  page 36.
Hexadecimal  [32-Bits]

Area                                    Addr        Size        Decimal Bytes (Attributes)
--------------------------------        ----        ----        ------- ----- ------------
_HEADER11                           00000000    000000AB =         171. bytes (ABS,CON)

      Value  Global                              Global Defined In Module
      -----  --------------------------------   ------------------------
     00000150  .reset                             Runtime
     00000150  _reset                             Runtime
     00000157  .code_start                        Runtime
     000001B9  _exit                              Runtime
     000001BD  .wait_vbl_done                     Runtime
     000001BD  _vsync                             Runtime
     000001BD  _wait_vbl_done                     Runtime
     000001CD  .remove_VBL                        Runtime
     000001CD  _remove_VBL                        Runtime
     000001D0  .remove_int                        Runtime
     000001ED  .add_VBL                           Runtime
     000001ED  _add_VBL                           Runtime
     000001F0  .add_int                           Runtime

ASxxxx Linker V03.00/V05.40 + sdld,  page 37.
Hexadecimal  [32-Bits]

Area                                    Addr        Size        Decimal Bytes (Attributes)
--------------------------------        ----        ----        ------- ----- ------------
_HOME                               0000104C    00002C6D =       11373. bytes (REL,CON)

      Value  Global                              Global Defined In Module
      -----  --------------------------------   ------------------------
     0000104C  .memset_simple                     Runtime
     00001055  .memcpy_simple                     Runtime
     00001072  .display_off                       Runtime
     00001072  _display_off                       Runtime
     0000108A  _actors_update                     actor
     000014E4  _SetBankedBkgData                  bankdata
     00001500  _SetBankedSpriteData               bankdata
     0000151C  _SetBankedBkgTiles                 bankdata
     00001538  _SetBankedWinTiles                 bankdata
     00001554  _ReadBankedFarPtr                  bankdata
     00001576  _ReadBankedUWORD                   bankdata
     00001590  _MemcpyBanked                      bankdata
     000015B2  _MemcpyVRAMBanked                  bankdata
     000015E1  _IndexOfFarPtr                     bankdata
     00001666  _camera_update                     camera
     00001799  _load_animations                   data_manager
     000017F2  _events_update                     events
     000018C5  _timers_update                     events
     0000194E  _input_update                      input
     00001971  .sio_ISR                           
     000019CB  .timer_ISR                         
     000019E0  _simple_LCD_isr                    interrupts
     00001A5F  _fullscreen_LCD_isr                interrupts
     00001A8B  _VBL_isr                           interrupts
     00001AD5  _isqrt                             math
     00001B32  _sine_wave                         math
     00001C32  _dir_lookup                        math
     00001C3A  _dir_angle_lookup                  math
     00001C3E  _hUGETrackerRoutine                music_manager
     00001C65  _music_events_update               music_manager
     00001CE7  _music_play_isr                    music_manager
     00001D88  _parallax_LCD_isr                  parallax
     00001DC5  _projectiles_update                projectiles
     00002246  _projectiles_render                projectiles
     0000239B  _scroll_load_pending_row           scroll
     000023E9  _scroll_load_row                   scroll
     00002429  _scroll_load_col                   scroll
     0000245E  _scroll_load_pending_col           scroll
     000024AD  _set_bkg_submap                    
     000024F0  _set_xy_win_submap                 
     0000251D  .set_xy_win_submap                 
     00002526  .set_xy_bkg_submap                 
     00002535  .set_xy_submap                     
     00002581  _sfx_play_isr                      sfx_player
     0000265A  _on_SIO_receive                    sio
     0000269B  _SIO_update                        sio
     00002702  _ui_update                         ui
     0000283A  _vm_sgb_transfer                   vm_sgb
     00002887  _vm_load_text                      vm_ui
     00002ADD  _vm_switch                         vm
ASxxxx Linker V03.00/V05.40 + sdld,  page 38.
Hexadecimal  [32-Bits]

Area                                    Addr        Size        Decimal Bytes (Attributes)
--------------------------------        ----        ----        ------- ----- ------------
_HOME                               0000104C    00002C6D =       11373. bytes (REL,CON)

      Value  Global                              Global Defined In Module
      -----  --------------------------------   ------------------------
     00002C0E  _vm_beginthread                    vm
     00002D32  _vm_rpn                            vm
     0000374A  _vm_get_far                        vm
     000037B8  _vm_call_native                    vm
     000037CB  _VM_STEP                           vm
     00003835  _script_runner_update              vm
     0000399A  _fill_win_rect                     
     000039AC  _rand                              
     000039AC  _randw                             
     000039D7  _initrand                          
     000039D9  .initrand                          
     000039E2  _get_bkg_data                      
     000039E2  _get_win_data                      
     00003A2F  _get_sprite_data                   
     00003A62  _abs                               abs
     00003A6F  _set_win_tiles                     
     00003A83  _set_tile_data                     
     00003A88  _set_bkg_data                      
     00003A88  _set_win_data                      
     00003A90  _set_sprite_data                   
     00003AC0  _reverse                           reverse
     00003AF4  ___call__banked                    far_ptr
     00003B11  _to_far_ptr                        far_ptr
     00003B47  .add_LCD                           
     00003B47  _add_LCD                           
     00003B4D  .remove_LCD                        
     00003B4D  _remove_LCD                        
     00003B53  .fill_rect_wtt                     
     00003B5C  .fill_rect_btt                     
     00003BA9  _fill_bkg_rect                     
     00003BBB  .padup                             
     00003BBB  _waitpadup                         
     00003BCB  .jpad                              
     00003BCB  _joypad                            
     00003BF3  _waitpad                           
     00003BF4  .wait_pad                          
     00003BFB  ___sdcc_call_hl                    call_hl
     00003BFC  _memset                            memset
     00003C2F  .set_xy_wtt                        SetTileMap
     00003C38  .set_xy_btt                        SetTileMap
     00003C47  .set_xy_tt                         SetTileMap
     00003C8B  ___sdcc_bcall_ehl                  
     00003CA5  _set_bkg_tiles                     
ASxxxx Linker V03.00/V05.40 + sdld,  page 39.
Hexadecimal  [32-Bits]

Area                                    Addr        Size        Decimal Bytes (Attributes)
--------------------------------        ----        ----        ------- ----- ------------
_INITIALIZER                        00003CB9    00000018 =          24. bytes (REL,CON)

      Value  Global                              Global Defined In Module
      -----  --------------------------------   ------------------------
ASxxxx Linker V03.00/V05.40 + sdld,  page 40.
Hexadecimal  [32-Bits]

Area                                    Addr        Size        Decimal Bytes (Attributes)
--------------------------------        ----        ----        ------- ----- ------------
_GSINIT                             00003CD1    00000027 =          39. bytes (REL,CON)

      Value  Global                              Global Defined In Module
      -----  --------------------------------   ------------------------
     00003CD1  gsinit                             Runtime

ASxxxx Linker V03.00/V05.40 + sdld,  page 41.
Hexadecimal  [32-Bits]

Area                                    Addr        Size        Decimal Bytes (Attributes)
--------------------------------        ----        ----        ------- ----- ------------
_GSFINAL                            00003CF8    00000001 =           1. bytes (REL,CON)

      Value  Global                              Global Defined In Module
      -----  --------------------------------   ------------------------
ASxxxx Linker V03.00/V05.40 + sdld,  page 42.
Hexadecimal  [32-Bits]

Area                                    Addr        Size        Decimal Bytes (Attributes)
--------------------------------        ----        ----        ------- ----- ------------
_DATA                               0000C0A0    00001971 =        6513. bytes (REL,CON)

      Value  Global                              Global Defined In Module
      -----  --------------------------------   ------------------------
     0000C0A0  __cpu                              Runtime
     0000C0A1  __is_GBA                           Runtime
     0000C0A2  .mode                              Runtime
     0000C0A3  .sys_time                          Runtime
     0000C0A3  _sys_time                          Runtime
     0000C0A5  .int_0x40                          Runtime
     0000C0B1  _actors                            actor
     0000C4F5  _actors_active_head                actor
     0000C4F7  _actors_active_tail                actor
     0000C4F9  _actors_inactive_head              actor
     0000C4FB  _screen_x                          actor
     0000C4FC  _screen_y                          actor
     0000C4FD  _invalid                           actor
     0000C4FF  _player_moving                     actor
     0000C500  _player_iframes                    actor
     0000C501  _player_collision_actor            actor
     0000C503  _emote_actor                       actor
     0000C505  _emote_timer                       actor
     0000C506  _allocated_sprite_tiles            actor
     0000C507  _allocated_hardware_sprites        actor
     0000C514  _camera_x                          camera
     0000C516  _camera_y                          camera
     0000C518  _camera_offset_x                   camera
     0000C519  _camera_offset_y                   camera
     0000C51A  _camera_deadzone_x                 camera
     0000C51B  _camera_deadzone_y                 camera
     0000C51C  _camera_settings                   camera
     0000C520  _current_scene                     data_manager
     0000C523  _image_bank                        data_manager
     0000C524  _image_ptr                         data_manager
     0000C526  _image_attr_bank                   data_manager
     0000C527  _image_attr_ptr                    data_manager
     0000C529  _collision_bank                    data_manager
     0000C52A  _collision_ptr                     data_manager
     0000C52C  _image_tile_width                  data_manager
     0000C52D  _image_tile_height                 data_manager
     0000C52E  _image_width                       data_manager
     0000C530  _image_height                      data_manager
     0000C532  _sprites_len                       data_manager
     0000C533  _actors_len                        data_manager
     0000C534  _projectiles_len                   data_manager
     0000C535  _player_sprite_len                 data_manager
     0000C536  _scene_type                        data_manager
     0000C537  _scene_LCD_type                    data_manager
     0000C538  _scene_stack                       data_manager
     0000C578  _scene_stack_ptr                   data_manager
     0000C57A  _scene_sprites_base_tiles          data_manager
     0000C5BA  _input_events                      events
     0000C5E2  _input_slots                       events
     0000C5EA  _timer_events                      events
ASxxxx Linker V03.00/V05.40 + sdld,  page 43.
Hexadecimal  [32-Bits]

Area                                    Addr        Size        Decimal Bytes (Attributes)
--------------------------------        ----        ----        ------- ----- ------------
_DATA                               0000C0A0    00001971 =        6513. bytes (REL,CON)

      Value  Global                              Global Defined In Module
      -----  --------------------------------   ------------------------
     0000C5FE  _timer_values                      events
     0000C606  _fade_running                      fade_manager
     0000C607  _fade_frames_per_step              fade_manager
     0000C608  _fade_timer                        fade_manager
     0000C610  _joypads                           input
     0000C615  _frame_joy                         input
     0000C616  _last_joy                          input
     0000C617  _recent_joy                        input
     0000C618  _SIO_status                        
     0000C619  _link_byte_sent                    
     0000C61A  _link_next_mode                    
     0000C61B  _save_blob_size                    load_save
     0000C61D  _routine_queue                     music_manager
     0000C621  _routine_queue_head                music_manager
     0000C622  _routine_queue_tail                music_manager
     0000C623  _music_events                      music_manager
     0000C637  _music_current_track_bank          music_manager
     0000C638  _music_mute_mask                   music_manager
     0000C639  _music_effective_mute              music_manager
     0000C63A  _music_next_track                  music_manager
     0000C63C  _music_current_track               music_manager
     0000C63E  _music_play_isr_counter            music_manager
     0000C63F  _music_play_isr_pause              music_manager
     0000C640  _music_global_mute_mask            music_manager
     0000C641  _music_sfx_priority                music_manager
     0000C642  _DMG_palette                       palette
     0000C645  _SprPalette                        palette
     0000C685  _parallax_rows                     parallax
     0000C697  _parallax_row                      parallax
     0000C699  _projectiles                       projectiles
     0000C752  _projectile_defs                   projectiles
     0000C7C5  _projectiles_active_head           projectiles
     0000C7C7  _projectiles_inactive_head         projectiles
     0000C7CE  _scroll_x                          scroll
     0000C7D0  _scroll_y                          scroll
     0000C7D2  _draw_scroll_x                     scroll
     0000C7D4  _draw_scroll_y                     scroll
     0000C7D6  _scroll_x_max                      scroll
     0000C7D8  _scroll_y_max                      scroll
     0000C7DA  _scroll_offset_x                   scroll
     0000C7DB  _scroll_offset_y                   scroll
     0000C7DC  _pending_h_x                       scroll
     0000C7DD  _pending_h_y                       scroll
     0000C7DE  _pending_h_i                       scroll
     0000C7DF  _pending_w_x                       scroll
     0000C7E0  _pending_w_y                       scroll
     0000C7E1  _pending_w_i                       scroll
     0000C7E2  _current_row                       scroll
     0000C7E4  _new_row                           scroll
     0000C7E6  _current_col                       scroll
     0000C7E8  _new_col                           scroll
ASxxxx Linker V03.00/V05.40 + sdld,  page 44.
Hexadecimal  [32-Bits]

Area                                    Addr        Size        Decimal Bytes (Attributes)
--------------------------------        ----        ----        ------- ----- ------------
_DATA                               0000C0A0    00001971 =        6513. bytes (REL,CON)

      Value  Global                              Global Defined In Module
      -----  --------------------------------   ------------------------
     0000C7EA  .image_tile_width                  
     0000C7EB  _sfx_play_bank                     sfx_player
     0000C7EC  _sfx_play_sample                   sfx_player
     0000C7EE  _sfx_frame_skip                    sfx_player
     0000C7EF  _link_operation_mode               sio
     0000C7F0  _link_packet                       sio
     0000C810  _link_packet_len                   sio
     0000C811  _link_packet_ptr                   sio
     0000C813  _link_packet_received              sio
     0000C814  _link_packet_snd_len               sio
     0000C815  _link_packet_snd_ptr               sio
     0000C817  _link_packet_sent                  sio
     0000C818  __is_CGB                           system
     0000C819  __is_SGB                           system
     0000C81A  __current_ram_bank                 system
     0000C81B  _triggers                          trigger
     0000C913  _last_trigger_tx                   trigger
     0000C914  _last_trigger_ty                   trigger
     0000C915  _last_trigger                      trigger
     0000C916  _win_pos_x                         ui
     0000C917  _win_dest_pos_x                    ui
     0000C918  _win_pos_y                         ui
     0000C919  _win_dest_pos_y                    ui
     0000C91A  _win_speed                         ui
     0000C91B  _text_drawn                        ui
     0000C91C  _current_text_speed                ui
     0000C91D  _text_options                      ui
     0000C91E  _text_in_speed                     ui
     0000C91F  _text_out_speed                    ui
     0000C920  _text_draw_speed                   ui
     0000C921  _text_ff_joypad                    ui
     0000C922  _text_ff                           ui
     0000C923  _text_bkg_fill                     ui
     0000C924  _ui_text_data                      ui
     0000CA2E  _vwf_current_mask                  ui
     0000CA2F  _vwf_current_rotate                ui
     0000CA30  _vwf_inverse_map                   ui
     0000CA31  _vwf_direction                     ui
     0000CA32  _vwf_current_font_desc             ui
     0000CA3A  _vwf_current_font_bank             ui
     0000CA3B  _vwf_current_font_idx              ui
     0000CA3C  _text_render_base_addr             ui
     0000CA3E  _text_scroll_addr                  ui
     0000CA40  _text_scroll_width                 ui
     0000CA41  _text_scroll_height                ui
     0000CA42  _text_scroll_fill                  ui
     0000CA43  _text_sound_mask                   ui
     0000CA44  _text_sound_bank                   ui
     0000CA45  _text_sound_data                   ui
     0000CA47  _overlay_priority                  ui
     0000CA48  _text_palette                      ui
ASxxxx Linker V03.00/V05.40 + sdld,  page 45.
Hexadecimal  [32-Bits]

Area                                    Addr        Size        Decimal Bytes (Attributes)
--------------------------------        ----        ----        ------- ----- ------------
_DATA                               0000C0A0    00001971 =        6513. bytes (REL,CON)

      Value  Global                              Global Defined In Module
      -----  --------------------------------   ------------------------
     0000CA4F  __itoa_fmt_len                     vm_ui_a
     0000CA50  .itoa_fmt_buf                      vm_ui_a
     0000CA53  _CTXS                              vm
     0000CB83  _first_ctx                         vm
     0000CB85  _free_ctxs                         vm
     0000CB87  _old_executing_ctx                 vm
     0000CB89  _executing_ctx                     vm
     0000CB8B  _vm_lock_state                     vm
     0000CB8C  _vm_loaded_state                   vm
     0000CB8D  _vm_exception_code                 vm
     0000CB8E  _vm_exception_params_length        vm
     0000CB8F  _vm_exception_params_bank          vm
     0000CB90  _vm_exception_params_offset        vm
     0000CB94  _script_memory                     vm
     0000D99A  _topdown_grid                      topdown
     0000D99B  ___rand_seed                       
     0000D9B9  _hUGE_current_wave                 hUGEDriver_obj
     0000D9B9  hUGE_current_wave                  hUGEDriver_obj
     0000D9BA  _hUGE_mute_mask                    hUGEDriver_obj
     0000DA01  ___call_banked_addr                far_ptr
     0000DA01  ___call_banked_ptr                 far_ptr
     0000DA03  ___call_banked_bank                far_ptr
     0000DA05  .int_0x48                          
     0000DA0D  ___current_metasprite              Metasprites
     0000DA0F  ___current_base_tile               Metasprites
     0000DA10  ___current_base_prop               Metasprites

ASxxxx Linker V03.00/V05.40 + sdld,  page 46.
Hexadecimal  [32-Bits]

Area                                    Addr        Size        Decimal Bytes (Attributes)
--------------------------------        ----        ----        ------- ----- ------------
_INITIALIZED                        0000DA11    00000018 =          24. bytes (REL,CON)

      Value  Global                              Global Defined In Module
      -----  --------------------------------   ------------------------
     0000DA11  _fade_style                        fade_manager
     0000DA12  _game_time                         game_time
     0000DA13  _PRN_PKT_START                     gbprinter
     0000DA21  _hide_sprites                      interrupts
     0000DA22  _show_actors_on_overlay            interrupts
     0000DA23  _overlay_cut_scanline              interrupts
     0000DA24  __submap_tile_offset               
     0000DA25  _triggers_len                      trigger
     0000DA26  _exchange_state                    vm_sio
     0000DA27  ___render_shadow_OAM               Metasprites
     0000DA28  __map_tile_offset                  SetTileMap

ASxxxx Linker V03.00/V05.40 + sdld,  page 47.
Hexadecimal  [32-Bits]

Area                                    Addr        Size        Decimal Bytes (Attributes)
--------------------------------        ----        ----        ------- ----- ------------
_HRAM12                             00000000    00000003 =           3. bytes (ABS,CON)

      Value  Global                              Global Defined In Module
      -----  --------------------------------   ------------------------
     0000FF90  __current_bank                     Runtime
     0000FF92  __shadow_OAM_base                  Runtime

ASxxxx Linker V03.00/V05.40 + sdld,  page 48.
Hexadecimal  [32-Bits]

Area                                    Addr        Size        Decimal Bytes (Attributes)
--------------------------------        ----        ----        ------- ----- ------------
_CODE_1                             00014000    00004000 =       16384. bytes (REL,CON)

      Value  Global                              Global Defined In Module
      -----  --------------------------------   ------------------------
     00014000  ___func_ACTOR                      actor
     00014000  _actors_init                       actor
     0001403A  _emote_offsets                     actor
     00014049  _emote_metasprite                  actor
     00014055  _player_init                       actor
     0001407B  _deactivate_actor                  actor
     000141DC  _activate_actor                    actor
     0001431B  _activate_actors_in_row            actor
     00014412  _activate_actors_in_col            actor
     00014563  _actor_set_frames                  actor
     000145B9  _actor_set_frame_offset            actor
     000145F4  _actor_get_frame_offset            actor
     00014606  _actor_set_anim_idle               actor
     00014634  _actor_set_anim_moving             actor
     00014665  _actor_set_dir                     actor
     000146CA  _actor_at_tile                     actor
     0001479E  _actor_in_front_of_player          actor
     00014852  _actor_overlapping_player          actor
     00014A61  _actor_overlapping_bb              actor
     00014CDF  _actors_handle_player_collision    actor
     00014D6B  _check_collision_in_direction      actor
     00015589  _restore_sram_bank                 flasher
     000155BF  _restore_sram                      flasher
     000155D5  _save_sram                         flasher
     00015601  _ui_swap_tiles                     
     0001564B  _ui_print_make_mask_lr             
     00015667  _ui_print_make_mask_rl             
     00015683  _ui_init                           ui
     0001574A  _ui_load_tiles                     ui
     000157A1  _ui_draw_frame                     ui
     00015811  _ui_print_reset                    ui
     00015845  _ui_set_start_tile                 ui
     00015871  _ui_print_render                   ui
     00015A52  _ui_draw_text_buffer_char          ui
     00015E8F  _ui_run_menu                       ui
     00016009  _ui_run_modal                      ui
     000160C3  ___func_VM_ACTOR                   vm_actor
     000160C3  _vm_actor_move_to                  vm_actor
     00016B09  _vm_actor_move_cancel              vm_actor
     00016B3F  _vm_actor_activate                 vm_actor
     00016B90  _vm_actor_deactivate               vm_actor
     00016BE1  _vm_actor_begin_update             vm_actor
     00016C68  _vm_actor_terminate_update         vm_actor
     00016CAF  _vm_actor_set_dir                  vm_actor
     00016CF8  _vm_actor_set_anim                 vm_actor
     00016D86  _vm_actor_set_pos                  vm_actor
     00016E00  _vm_actor_get_pos                  vm_actor
     00016E6F  _vm_actor_get_dir                  vm_actor
     00016EE9  _vm_actor_get_angle                vm_actor
     00016F6A  _vm_actor_emote                    vm_actor
ASxxxx Linker V03.00/V05.40 + sdld,  page 49.
Hexadecimal  [32-Bits]

Area                                    Addr        Size        Decimal Bytes (Attributes)
--------------------------------        ----        ----        ------- ----- ------------
_CODE_1                             00014000    00004000 =       16384. bytes (REL,CON)

      Value  Global                              Global Defined In Module
      -----  --------------------------------   ------------------------
     0001702E  _vm_actor_set_bounds               vm_actor
     0001708C  _vm_actor_set_spritesheet          vm_actor
     00017156  _vm_actor_replace_tile             vm_actor
     000171C1  _vm_actor_set_anim_tick            vm_actor
     000171FF  _vm_actor_set_move_speed           vm_actor
     0001723D  _vm_actor_set_anim_frame           vm_actor
     00017281  _vm_actor_get_anim_frame           vm_actor
     000172CB  _vm_actor_set_anim_set             vm_actor
     00017353  _vm_actor_set_spritesheet_by_ref   vm_actor
     00017460  _vm_actor_set_flags                vm_actor
     0001750E  ___func_VM_SGB                     vm_sgb
     00017FE5  _song_rulz_outside_0_Data          song_rulz_outside_0_Data
     00017FFA  ___func_palette_0                  palette_0
     00017FFA  _palette_0                         palette_0
     00017FFD  ___func_palette_1                  palette_1
     00017FFD  _palette_1                         palette_1
ASxxxx Linker V03.00/V05.40 + sdld,  page 50.
Hexadecimal  [32-Bits]

Area                                    Addr        Size        Decimal Bytes (Attributes)
--------------------------------        ----        ----        ------- ----- ------------
_CODE_8                             00084000    00000605 =        1541. bytes (REL,CON)

      Value  Global                              Global Defined In Module
      -----  --------------------------------   ------------------------
     00084000  _bootstrap_script                  
     0008400B  _camera_init                       camera
     00084031  _input_init                        input
     00084057  _palette_init                      palette
     00084065  _actor_11_interact                 actor_11_interact
     00084078  GBVM$actor_11_interact$ca9298bb_   actor_11_interact
     0008407F  _actor_19_interact                 actor_19_interact
     00084092  GBVM$actor_19_interact$28611fd6_   actor_19_interact
     00084099  _actor_30_interact                 actor_30_interact
     000840AC  GBVM$actor_30_interact$83d1ffd7_   actor_30_interact
     000840B3  _actor_36_interact                 actor_36_interact
     000840C6  GBVM$actor_36_interact$9dd5466f_   actor_36_interact
     000840CD  _actor_47_interact                 actor_47_interact
     000840E0  GBVM$actor_47_interact$0c16b158_   actor_47_interact
     000840E7  _actor_5_interact                  actor_5_interact
     000840FA  GBVM$actor_5_interact$1524cbd0_d   actor_5_interact
     00084101  _actor_53_interact                 actor_53_interact
     00084114  GBVM$actor_53_interact$d755f9a4_   actor_53_interact
     0008411B  _actor_60_interact                 actor_60_interact
     0008412E  GBVM$actor_60_interact$3f5119ea_   actor_60_interact
     00084135  _actor_71_interact                 actor_71_interact
     00084148  GBVM$actor_71_interact$1ffb300e_   actor_71_interact
     0008414F  ___func_bg_map2                    bg_map2
     0008414F  _bg_map2                           bg_map2
     0008415D  ___func_bg_map3                    bg_map3
     0008415D  _bg_map3                           bg_map3
     0008416B  ___func_bg_mmmmmmmmmmmmmap         bg_mmmmmmmmmmmmmap
     0008416B  _bg_mmmmmmmmmmmmmap                bg_mmmmmmmmmmmmmap
     00084179  ___func_bg_placeholder             bg_placeholder
     00084179  _bg_placeholder                    bg_placeholder
     00084187  ___func_cursor_image               cursor_image
     00084187  _cursor_image                      cursor_image
     00084197  ___func_scene_1_sprites            scene_1_sprites
     00084197  _scene_1_sprites                   scene_1_sprites
     000841A6  ___func_scene_10_sprites           scene_10_sprites
     000841A6  _scene_10_sprites                  scene_10_sprites
     000841B5  _scene_11_init                     scene_11_init
     000841B6  GBVM$scene_11_init$de304cd9_38ec   scene_11_init
     000841BA  GBVM$scene_11_init$autofade$f317   scene_11_init
     000841C6  ___func_scene_11_sprites           scene_11_sprites
     000841C6  _scene_11_sprites                  scene_11_sprites
     000841D5  ___func_scene_12_sprites           scene_12_sprites
     000841D5  _scene_12_sprites                  scene_12_sprites
     000841E4  _scene_13_init                     scene_13_init
     000841E5  GBVM$scene_13_init$d1c1e442_a3b6   scene_13_init
     000841E9  GBVM$scene_13_init$autofade$660c   scene_13_init
     000841F5  ___func_scene_13_sprites           scene_13_sprites
     000841F5  _scene_13_sprites                  scene_13_sprites
     00084204  _scene_14_init                     scene_14_init
     00084205  GBVM$scene_14_init$7150dcf6_2982   scene_14_init
ASxxxx Linker V03.00/V05.40 + sdld,  page 51.
Hexadecimal  [32-Bits]

Area                                    Addr        Size        Decimal Bytes (Attributes)
--------------------------------        ----        ----        ------- ----- ------------
_CODE_8                             00084000    00000605 =        1541. bytes (REL,CON)

      Value  Global                              Global Defined In Module
      -----  --------------------------------   ------------------------
     00084209  GBVM$scene_14_init$autofade$d6bd   scene_14_init
     00084215  ___func_scene_14_sprites           scene_14_sprites
     00084215  _scene_14_sprites                  scene_14_sprites
     00084224  _scene_6_init                      scene_6_init
     00084225  GBVM$scene_6_init$3406c7c2_9571_   scene_6_init
     00084229  GBVM$scene_6_init$autofade$57eb5   scene_6_init
     00084235  ___func_scene_6_sprites            scene_6_sprites
     00084235  _scene_6_sprites                   scene_6_sprites
     00084244  _scene_7_init                      scene_7_init
     00084245  GBVM$scene_7_init$4fa4cce0_5861_   scene_7_init
     00084249  GBVM$scene_7_init$autofade$d3733   scene_7_init
     00084255  ___func_scene_7_sprites            scene_7_sprites
     00084255  _scene_7_sprites                   scene_7_sprites
     00084264  ___func_scene_9_sprites            scene_9_sprites
     00084264  _scene_9_sprites                   scene_9_sprites
     00084273  _script_engine_init                
     00084287  ___func_sound_legacy_0_0           sound_legacy_0_0
     00084287  _sound_legacy_0_0                  sound_legacy_0_0
     00084295  ___func_sound_legacy_0_1           sound_legacy_0_1
     00084295  _sound_legacy_0_1                  sound_legacy_0_1
     000842A2  ___func_sound_legacy_0_2           sound_legacy_0_2
     000842A2  _sound_legacy_0_2                  sound_legacy_0_2
     000842B2  ___func_sound_legacy_0_3           sound_legacy_0_3
     000842B2  _sound_legacy_0_3                  sound_legacy_0_3
     000842C5  ___func_sound_legacy_0             sound_legacy_0
     000842C5  _sound_legacy_0                    sound_legacy_0
     000842D2  _spritesheet_none_metasprite       spritesheet_none
     000842D6  _spritesheet_none_metasprites      spritesheet_none
     000842D8  _spritesheet_none                  spritesheet_none
     000842EB  _trigger_10_interact               trigger_10_interact
     000842EC  GBVM$trigger_10_interact$3eec9e4   trigger_10_interact
     000842F1  GBVM$trigger_10_interact$405173e   trigger_10_interact
     000842F4  _trigger_17_interact               trigger_17_interact
     000842F5  GBVM$trigger_17_interact$8e30868   trigger_17_interact
     000842FA  GBVM$trigger_17_interact$477f281   trigger_17_interact
     000842FD  _trigger_18_interact               trigger_18_interact
     000842FE  GBVM$trigger_18_interact$1f75315   trigger_18_interact
     00084303  GBVM$trigger_18_interact$c852304   trigger_18_interact
     00084306  _trigger_19_interact               trigger_19_interact
     00084307  GBVM$trigger_19_interact$c12eb1c   trigger_19_interact
     0008430C  GBVM$trigger_19_interact$61b200a   trigger_19_interact
     0008430F  _trigger_27_interact               trigger_27_interact
     00084310  GBVM$trigger_27_interact$e05b5d8   trigger_27_interact
     00084315  GBVM$trigger_27_interact$b70666d   trigger_27_interact
     00084318  _trigger_28_interact               trigger_28_interact
     00084319  GBVM$trigger_28_interact$3f1fdee   trigger_28_interact
     0008431E  GBVM$trigger_28_interact$4e7f54c   trigger_28_interact
     00084321  _trigger_30_interact               trigger_30_interact
     00084322  GBVM$trigger_30_interact$bc38275   trigger_30_interact
     00084327  GBVM$trigger_30_interact$b92cf62   trigger_30_interact
     0008432A  _trigger_31_interact               trigger_31_interact
ASxxxx Linker V03.00/V05.40 + sdld,  page 52.
Hexadecimal  [32-Bits]

Area                                    Addr        Size        Decimal Bytes (Attributes)
--------------------------------        ----        ----        ------- ----- ------------
_CODE_8                             00084000    00000605 =        1541. bytes (REL,CON)

      Value  Global                              Global Defined In Module
      -----  --------------------------------   ------------------------
     0008432B  GBVM$trigger_31_interact$604dfe6   trigger_31_interact
     00084330  GBVM$trigger_31_interact$ac12f1f   trigger_31_interact
     00084333  _trigger_37_interact               trigger_37_interact
     00084334  GBVM$trigger_37_interact$61e1628   trigger_37_interact
     00084339  GBVM$trigger_37_interact$0460bdb   trigger_37_interact
     0008433C  _trigger_38_interact               trigger_38_interact
     0008433D  GBVM$trigger_38_interact$d79fc18   trigger_38_interact
     00084342  GBVM$trigger_38_interact$78244f5   trigger_38_interact
     00084345  _trigger_39_interact               trigger_39_interact
     00084346  GBVM$trigger_39_interact$bb0437f   trigger_39_interact
     0008434B  GBVM$trigger_39_interact$a95a530   trigger_39_interact
     0008434E  _trigger_4_interact                trigger_4_interact
     0008434F  GBVM$trigger_4_interact$3268c4dc   trigger_4_interact
     00084354  GBVM$trigger_4_interact$63449ccb   trigger_4_interact
     00084357  _trigger_45_interact               trigger_45_interact
     0008435A  GBVM$trigger_45_interact$ca8a3e3   trigger_45_interact
     0008436C  GBVM$trigger_45_interact$d2d10b8   trigger_45_interact
     00084371  GBVM$trigger_45_interact$15450cb   trigger_45_interact
     00084388  _trigger_50_interact               trigger_50_interact
     00084389  GBVM$trigger_50_interact$e877841   trigger_50_interact
     0008438E  GBVM$trigger_50_interact$e5b802e   trigger_50_interact
     00084391  _trigger_51_interact               trigger_51_interact
     00084392  GBVM$trigger_51_interact$69f816f   trigger_51_interact
     00084397  GBVM$trigger_51_interact$d4b9f3b   trigger_51_interact
     0008439A  _trigger_52_interact               trigger_52_interact
     0008439D  GBVM$trigger_52_interact$2b30bfb   trigger_52_interact
     000843AF  GBVM$trigger_52_interact$f2ba3ca   trigger_52_interact
     000843B4  GBVM$trigger_52_interact$1873019   trigger_52_interact
     000843CB  _trigger_53_interact               trigger_53_interact
     000843CC  GBVM$trigger_53_interact$42c30f3   trigger_53_interact
     000843D1  GBVM$trigger_53_interact$83fa5fb   trigger_53_interact
     000843D4  _trigger_54_interact               trigger_54_interact
     000843D5  GBVM$trigger_54_interact$9a69ac7   trigger_54_interact
     000843DA  GBVM$trigger_54_interact$88587c1   trigger_54_interact
     000843DD  _trigger_55_interact               trigger_55_interact
     000843E0  GBVM$trigger_55_interact$351c859   trigger_55_interact
     000843F2  GBVM$trigger_55_interact$088441a   trigger_55_interact
     000843F7  GBVM$trigger_55_interact$aa9fc04   trigger_55_interact
     0008440E  _trigger_6_interact                trigger_6_interact
     0008440F  GBVM$trigger_6_interact$7b25fb75   trigger_6_interact
     00084414  GBVM$trigger_6_interact$9fa09b28   trigger_6_interact
     00084417  _trigger_60_interact               trigger_60_interact
     00084418  GBVM$trigger_60_interact$96fe7ab   trigger_60_interact
     0008441D  GBVM$trigger_60_interact$cdd066f   trigger_60_interact
     00084420  _trigger_61_interact               trigger_61_interact
     00084421  GBVM$trigger_61_interact$4525098   trigger_61_interact
     00084426  GBVM$trigger_61_interact$0ae71b6   trigger_61_interact
     00084429  _trigger_62_interact               trigger_62_interact
     0008442A  GBVM$trigger_62_interact$1419ced   trigger_62_interact
     0008442F  GBVM$trigger_62_interact$2c8c3ce   trigger_62_interact
     00084432  _trigger_68_interact               trigger_68_interact
ASxxxx Linker V03.00/V05.40 + sdld,  page 53.
Hexadecimal  [32-Bits]

Area                                    Addr        Size        Decimal Bytes (Attributes)
--------------------------------        ----        ----        ------- ----- ------------
_CODE_8                             00084000    00000605 =        1541. bytes (REL,CON)

      Value  Global                              Global Defined In Module
      -----  --------------------------------   ------------------------
     00084435  GBVM$trigger_68_interact$12922f3   trigger_68_interact
     00084447  GBVM$trigger_68_interact$a85ad23   trigger_68_interact
     0008444C  GBVM$trigger_68_interact$77c187f   trigger_68_interact
     00084463  _trigger_69_interact               trigger_69_interact
     00084466  GBVM$trigger_69_interact$6fb4070   trigger_69_interact
     00084478  GBVM$trigger_69_interact$0201d4f   trigger_69_interact
     0008447D  GBVM$trigger_69_interact$11dc521   trigger_69_interact
     00084494  _trigger_71_interact               trigger_71_interact
     00084497  GBVM$trigger_71_interact$0fa28bb   trigger_71_interact
     000844A9  GBVM$trigger_71_interact$15d5ecd   trigger_71_interact
     000844AE  GBVM$trigger_71_interact$bbf579a   trigger_71_interact
     000844C5  _trigger_72_interact               trigger_72_interact
     000844C8  GBVM$trigger_72_interact$36afbc9   trigger_72_interact
     000844DA  GBVM$trigger_72_interact$391f854   trigger_72_interact
     000844DF  GBVM$trigger_72_interact$9f919e6   trigger_72_interact
     000844F6  _trigger_73_interact               trigger_73_interact
     000844F9  GBVM$trigger_73_interact$c3fae2c   trigger_73_interact
     0008450B  GBVM$trigger_73_interact$f5d248c   trigger_73_interact
     00084510  GBVM$trigger_73_interact$47533c5   trigger_73_interact
     00084527  _trigger_74_interact               trigger_74_interact
     0008452A  GBVM$trigger_74_interact$abeb907   trigger_74_interact
     0008453C  GBVM$trigger_74_interact$a121a5c   trigger_74_interact
     00084541  GBVM$trigger_74_interact$c5cdbbc   trigger_74_interact
     00084558  _trigger_75_interact               trigger_75_interact
     0008455B  GBVM$trigger_75_interact$c2e104e   trigger_75_interact
     0008456D  GBVM$trigger_75_interact$20ccc4d   trigger_75_interact
     00084572  GBVM$trigger_75_interact$7401598   trigger_75_interact
     00084589  _trigger_76_interact               trigger_76_interact
     0008458C  GBVM$trigger_76_interact$63c0a84   trigger_76_interact
     0008459E  GBVM$trigger_76_interact$7197938   trigger_76_interact
     000845A3  GBVM$trigger_76_interact$18d4853   trigger_76_interact
     000845BA  _trigger_77_interact               trigger_77_interact
     000845BD  GBVM$trigger_77_interact$42691b8   trigger_77_interact
     000845CF  GBVM$trigger_77_interact$772eebd   trigger_77_interact
     000845D4  GBVM$trigger_77_interact$5cd2a57   trigger_77_interact
     000845EB  _trigger_9_interact                trigger_9_interact
     000845EC  GBVM$trigger_9_interact$4d8555d4   trigger_9_interact
     000845F1  GBVM$trigger_9_interact$2db53ada   trigger_9_interact
     000845F4  _logo_init                         logo
     00084604  _logo_update                       logo
ASxxxx Linker V03.00/V05.40 + sdld,  page 54.
Hexadecimal  [32-Bits]

Area                                    Addr        Size        Decimal Bytes (Attributes)
--------------------------------        ----        ----        ------- ----- ------------
_CODE_4                             00044000    00003FFF =       16383. bytes (REL,CON)

      Value  Global                              Global Defined In Module
      -----  --------------------------------   ------------------------
     00044000  _core_reset                        core
     00044075  _process_VM                        core
     000442F3  _core_run                          core
     0004442E  _save_sram_banks                   
     000444B6  _erase_flash                       
     000444CC  _data_init                         load_save
     00044517  _save_points                       load_save
     00044577  _data_slot_address                 load_save
     000445EF  _data_save                         load_save
     000446B0  _data_load                         load_save
     000447C4  _data_clear                        load_save
     000447F1  _data_peek                         load_save
     00044892  _parallax_init                     parallax
     000448B2  _projectiles_init                  projectiles
     000448E1  _projectile_launch                 projectiles
     00044CDB  _scroll_init                       scroll
     00044D05  _scroll_reset                      scroll
     00044D25  _scroll_update                     scroll
     00044E5C  _scroll_viewport                   scroll
     000452F5  _scroll_repaint                    scroll
     00045305  _scroll_render_rows                scroll
     0004539B  _scroll_queue_row                  scroll
     000453BD  _scroll_queue_col                  scroll
     00045408  ___func_VM_CAMERA                  vm_camera
     00045408  _vm_camera_move_to                 vm_camera
     0004565B  _vm_camera_set_pos                 vm_camera
     000456A2  _camera_shake_frames               vm_camera
     000457D1  ___func_VM_GAMEBOY                 vm_gameboy
     000457D1  _vm_set_sprites_visible            vm_gameboy
     000457E8  _vm_input_wait                     vm_gameboy
     00045811  _vm_context_prepare                vm_gameboy
     0004583C  _vm_input_attach                   vm_gameboy
     00045852  _vm_input_detach                   vm_gameboy
     00045866  _vm_input_get                      vm_gameboy
     0004589A  _vm_fade                           vm_gameboy
     000458CA  _vm_timer_prepare                  vm_gameboy
     000458F5  _vm_timer_set                      vm_gameboy
     00045910  _vm_timer_stop                     vm_gameboy
     00045924  _vm_timer_reset                    vm_gameboy
     0004593B  _vm_get_tile_xy                    vm_gameboy
     000459DB  _vm_replace_tile                   vm_gameboy
     00045A6C  _vm_poll                           vm_gameboy
     00045B3E  _vm_set_sprite_mode                vm_gameboy
     00045B52  _vm_replace_tile_xy                vm_gameboy
     00045CBA  _vm_rumble                         vm_gameboy
     00045CDA  _vm_load_tileset                   vm_gameboy
     00045D47  ___func_bg_map2_tilemap            bg_map2_tilemap
     00045D47  _bg_map2_tilemap                   bg_map2_tilemap
     00046107  ___func_bg_map3_tilemap            bg_map3_tilemap
     00046107  _bg_map3_tilemap                   bg_map3_tilemap
ASxxxx Linker V03.00/V05.40 + sdld,  page 55.
Hexadecimal  [32-Bits]

Area                                    Addr        Size        Decimal Bytes (Attributes)
--------------------------------        ----        ----        ------- ----- ------------
_CODE_4                             00044000    00003FFF =       16383. bytes (REL,CON)

      Value  Global                              Global Defined In Module
      -----  --------------------------------   ------------------------
     000464C7  ___func_bg_mmmmmmmmmmmmmap_tilem   bg_mmmmmmmmmmmmmap_tilemap
     000464C7  _bg_mmmmmmmmmmmmmap_tilemap        bg_mmmmmmmmmmmmmap_tilemap
     00046887  ___func_scene_1_collisions         scene_1_collisions
     00046887  _scene_1_collisions                scene_1_collisions
     00046C47  ___func_scene_10_collisions        scene_10_collisions
     00046C47  _scene_10_collisions               scene_10_collisions
     00047007  ___func_scene_11_collisions        scene_11_collisions
     00047007  _scene_11_collisions               scene_11_collisions
     000473C7  _scene_5_init                      scene_5_init
     000473CA  GBVM$scene_5_init$956a0899_4003_   scene_5_init
     000473CE  GBVM$scene_5_init$0ed75180_3171_   scene_5_init
     000473D6  GBVM$scene_5_init$autofade$ccbe2   scene_5_init
     000473E1  GBVM$scene_5_init$379ba51b_e30f_   scene_5_init
     0004743B  GBVM$scene_5_init$9922abba_80c0_   scene_5_init
     00047450  GBVM$scene_5_init$5c8ee932_7acb_   scene_5_init
     000474B1  GBVM$scene_5_init$d8cc5852_b822_   scene_5_init
     000474C6  GBVM$scene_5_init$6314c282_cdb7_   scene_5_init
     000474F8  GBVM$scene_5_init$60769bf8_ce9b_   scene_5_init
     000474F8  GBVM_END$scene_5_init$d8cc5852_b   scene_5_init
     0004750D  GBVM$scene_5_init$705925fb_361a_   scene_5_init
     0004753F  GBVM$scene_5_init$91a4ca0a_1599_   scene_5_init
     0004753F  GBVM_END$scene_5_init$60769bf8_c   scene_5_init
     00047554  GBVM$scene_5_init$1ceced6c_079f_   scene_5_init
     00047586  GBVM$scene_5_init$328740b7_e3de_   scene_5_init
     00047586  GBVM_END$scene_5_init$91a4ca0a_1   scene_5_init
     0004759B  GBVM$scene_5_init$8fdf1437_c252_   scene_5_init
     000475CD  GBVM$scene_5_init$a752028b_ee25_   scene_5_init
     000475CD  GBVM_END$scene_5_init$328740b7_e   scene_5_init
     000475CD  GBVM_END$scene_5_init$9922abba_8   scene_5_init
     000475E2  GBVM$scene_5_init$f2d329a7_ad88_   scene_5_init
     00047643  GBVM$scene_5_init$7184df8b_62a0_   scene_5_init
     00047658  GBVM$scene_5_init$75fbebd1_6c39_   scene_5_init
     0004768A  GBVM$scene_5_init$7cda4a51_a06b_   scene_5_init
     0004768A  GBVM_END$scene_5_init$7184df8b_6   scene_5_init
     0004769F  GBVM$scene_5_init$70cc2e29_bb82_   scene_5_init
     000476D1  GBVM$scene_5_init$71d81b3a_aad7_   scene_5_init
     000476D1  GBVM_END$scene_5_init$7cda4a51_a   scene_5_init
     000476E6  GBVM$scene_5_init$badf5e3f_db71_   scene_5_init
     00047718  GBVM$scene_5_init$f001ab25_46b9_   scene_5_init
     00047718  GBVM_END$scene_5_init$71d81b3a_a   scene_5_init
     0004772D  GBVM$scene_5_init$d39fa49c_9d43_   scene_5_init
     0004775F  GBVM$scene_5_init$f6c60bce_f6ce_   scene_5_init
     0004775F  GBVM_END$scene_5_init$a752028b_e   scene_5_init
     0004775F  GBVM_END$scene_5_init$f001ab25_4   scene_5_init
     00047774  GBVM$scene_5_init$4a579faf_3984_   scene_5_init
     000477D5  GBVM$scene_5_init$1d28995b_6ed1_   scene_5_init
     000477EA  GBVM$scene_5_init$5adcf56a_e7b2_   scene_5_init
     0004781C  GBVM$scene_5_init$36c6ad3f_c5d6_   scene_5_init
     0004781C  GBVM_END$scene_5_init$1d28995b_6   scene_5_init
     00047831  GBVM$scene_5_init$df6a6a02_be5b_   scene_5_init
     00047863  GBVM$scene_5_init$3af15500_8af4_   scene_5_init
ASxxxx Linker V03.00/V05.40 + sdld,  page 56.
Hexadecimal  [32-Bits]

Area                                    Addr        Size        Decimal Bytes (Attributes)
--------------------------------        ----        ----        ------- ----- ------------
_CODE_4                             00044000    00003FFF =       16383. bytes (REL,CON)

      Value  Global                              Global Defined In Module
      -----  --------------------------------   ------------------------
     00047863  GBVM_END$scene_5_init$36c6ad3f_c   scene_5_init
     00047878  GBVM$scene_5_init$16e0f931_b2f0_   scene_5_init
     000478AA  GBVM$scene_5_init$1a69c091_0ce5_   scene_5_init
     000478AA  GBVM_END$scene_5_init$3af15500_8   scene_5_init
     000478BF  GBVM$scene_5_init$a797de22_a58c_   scene_5_init
     000478F1  GBVM$scene_5_init$c10991d8_6cb8_   scene_5_init
     000478F1  GBVM_END$scene_5_init$1a69c091_0   scene_5_init
     000478F1  GBVM_END$scene_5_init$f6c60bce_f   scene_5_init
     00047906  GBVM$scene_5_init$3230dc79_7948_   scene_5_init
     00047938  GBVM_END$scene_5_init$c10991d8_6   scene_5_init
     00047939  _topdown_init                      topdown
     000479D5  _topdown_update                    topdown

ASxxxx Linker V03.00/V05.40 + sdld,  page 57.
Hexadecimal  [32-Bits]

Area                                    Addr        Size        Decimal Bytes (Attributes)
--------------------------------        ----        ----        ------- ----- ------------
_CRASH_HEADER0                      00000000    00000005 =           5. bytes (ABS,CON)

      Value  Global                              Global Defined In Module
      -----  --------------------------------   ------------------------
ASxxxx Linker V03.00/V05.40 + sdld,  page 58.
Hexadecimal  [32-Bits]

Area                                    Addr        Size        Decimal Bytes (Attributes)
--------------------------------        ----        ----        ------- ----- ------------
_CRASH_HEADER1                      00000000    00000004 =           4. bytes (ABS,CON)

      Value  Global                              Global Defined In Module
      -----  --------------------------------   ------------------------
ASxxxx Linker V03.00/V05.40 + sdld,  page 59.
Hexadecimal  [32-Bits]

Area                                    Addr        Size        Decimal Bytes (Attributes)
--------------------------------        ----        ----        ------- ----- ------------
_CODE_5                             00054000    00004000 =       16384. bytes (REL,CON)

      Value  Global                              Global Defined In Module
      -----  --------------------------------   ------------------------
     00054000  ___HandleCrash_banked              
     00054368  _DMGFadeToWhiteStep                fade_manager
     00054389  _DMGFadeToBlackStep                fade_manager
     000543AC  _ApplyPaletteChangeDMG             fade_manager
     00054402  _fade_speeds                       fade_manager
     00054409  _fade_init                         fade_manager
     0005441F  _fade_in                           fade_manager
     00054441  _fade_out                          fade_manager
     00054465  _fade_update                       fade_manager
     000544AC  _fade_applypalettechange           fade_manager
     000544B2  _fade_setspeed                     fade_manager
     000544C2  _fade_in_modal                     fade_manager
     000544DC  _fade_out_modal                    fade_manager
     000544F6  _printer_send_receive              gbprinter
     0005452C  _printer_send_byte                 gbprinter
     0005453F  _printer_send_command              gbprinter
     00054562  _printer_print_tile                gbprinter
     000545F3  _printer_wait                      gbprinter
     00054625  _gbprinter_detect                  gbprinter
     0005463F  _gbprinter_print_overlay           gbprinter
     00054804  _atan2                             math_atan2
     0005499D  _atan2_table                       math_atan2
     00054B05  _SIO_init                          sio
     00054B2E  _trigger_reset                     trigger
     00054B3E  _trigger_interact                  trigger
     00054B7D  _trigger_activate_at               trigger
     00054BC8  _trigger_at_intersection           trigger
     00054CEF  _trigger_activate_at_intersectio   trigger
     00054E30  _trigger_at_tile                   trigger
     00054EC1  ___func_VM_RTC                     vm_rtc
     00054EC1  _vm_rtc_latch                      vm_rtc
     00054EC9  _vm_rtc_get                        vm_rtc
     00054F30  _vm_rtc_set                        vm_rtc
     00054F8E  _vm_rtc_start                      vm_rtc
     00054FB1  ___func_VM_SIO                     vm_sio
     00054FB1  _vm_sio_set_mode                   vm_sio
     00054FC3  _vm_sio_exchange                   vm_sio
     000552A5  ___func_bg_placeholder_tilemap     bg_placeholder_tilemap
     000552A5  _bg_placeholder_tilemap            bg_placeholder_tilemap
     0005540D  ___func_scene_0_collisions         scene_0_collisions
     0005540D  _scene_0_collisions                scene_0_collisions
     00055575  ___func_scene_10_actors            scene_10_actors
     00055575  _scene_10_actors                   scene_10_actors
     000556E1  ___func_scene_11_actors            scene_11_actors
     000556E1  _scene_11_actors                   scene_11_actors
     0005591D  ___func_scene_12_collisions        scene_12_collisions
     0005591D  _scene_12_collisions               scene_12_collisions
     00055CDD  ___func_scene_13_actors            scene_13_actors
     00055CDD  _scene_13_actors                   scene_13_actors
     00055E49  ___func_scene_13_collisions        scene_13_collisions
ASxxxx Linker V03.00/V05.40 + sdld,  page 60.
Hexadecimal  [32-Bits]

Area                                    Addr        Size        Decimal Bytes (Attributes)
--------------------------------        ----        ----        ------- ----- ------------
_CODE_5                             00054000    00004000 =       16384. bytes (REL,CON)

      Value  Global                              Global Defined In Module
      -----  --------------------------------   ------------------------
     00055E49  _scene_13_collisions               scene_13_collisions
     00056209  ___func_scene_14_actors            scene_14_actors
     00056209  _scene_14_actors                   scene_14_actors
     00056445  ___func_scene_14_collisions        scene_14_collisions
     00056445  _scene_14_collisions               scene_14_collisions
     00056805  ___func_scene_15_collisions        scene_15_collisions
     00056805  _scene_15_collisions               scene_15_collisions
     0005696D  ___func_scene_16_collisions        scene_16_collisions
     0005696D  _scene_16_collisions               scene_16_collisions
     00056AD5  ___func_scene_17_collisions        scene_17_collisions
     00056AD5  _scene_17_collisions               scene_17_collisions
     00056C3D  ___func_scene_6_actors             scene_6_actors
     00056C3D  _scene_6_actors                    scene_6_actors
     00056DA9  ___func_scene_6_collisions         scene_6_collisions
     00056DA9  _scene_6_collisions                scene_6_collisions
     00057169  ___func_scene_7_actors             scene_7_actors
     00057169  _scene_7_actors                    scene_7_actors
     000573A5  ___func_scene_7_collisions         scene_7_collisions
     000573A5  _scene_7_collisions                scene_7_collisions
     00057765  ___func_scene_9_collisions         scene_9_collisions
     00057765  _scene_9_collisions                scene_9_collisions
     00057B25  ___func_sound_tronimal_sound_eff   sound_tronimal_sound_effect
     00057B25  ___func_sound_tronimal_sound_eff   sound_tronimal_sound_effect
     00057B25  ___func_sound_tronimal_sound_eff   sound_tronimal_sound_effect
     00057B25  ___func_sound_tronimal_sound_eff   sound_tronimal_sound_effect
     00057B25  ___func_sound_tronimal_sound_eff   sound_tronimal_sound_effect
     00057B25  ___func_sound_tronimal_sound_eff   sound_tronimal_sound_effect
     00057B25  ___func_sound_tronimal_sound_eff   sound_tronimal_sound_effect
     00057B25  ___func_sound_tronimal_sound_eff   sound_tronimal_sound_effect
     00057B25  ___func_sound_tronimal_sound_eff   sound_tronimal_sound_effect
     00057B25  ___func_sound_tronimal_sound_eff   sound_tronimal_sound_effect
     00057B25  _sound_tronimal_sound_effect_00    sound_tronimal_sound_effect
     00057BAA  _sound_tronimal_sound_effect_01    sound_tronimal_sound_effect
     00057BFF  _sound_tronimal_sound_effect_02    sound_tronimal_sound_effect
     00057C36  _sound_tronimal_sound_effect_03    sound_tronimal_sound_effect
     00057C65  _sound_tronimal_sound_effect_04    sound_tronimal_sound_effect
     00057CC7  _sound_tronimal_sound_effect_05    sound_tronimal_sound_effect
     00057D36  _sound_tronimal_sound_effect_06    sound_tronimal_sound_effect
     00057D93  _sound_tronimal_sound_effect_07    sound_tronimal_sound_effect
     00057DC9  _sound_tronimal_sound_effect_08    sound_tronimal_sound_effect
     00057E1C  _sound_tronimal_sound_effect_09    sound_tronimal_sound_effect
     00057E7E  ___func_sprite_skunk_player_tile   sprite_skunk_player_tileset
     00057E7E  _sprite_skunk_player_tileset       sprite_skunk_player_tileset
ASxxxx Linker V03.00/V05.40 + sdld,  page 61.
Hexadecimal  [32-Bits]

Area                                    Addr        Size        Decimal Bytes (Attributes)
--------------------------------        ----        ----        ------- ----- ------------
_CRASH_SCRATCH2                     00000000    000001CB =         459. bytes (ABS,CON)

      Value  Global                              Global Defined In Module
      -----  --------------------------------   ------------------------
ASxxxx Linker V03.00/V05.40 + sdld,  page 62.
Hexadecimal  [32-Bits]

Area                                    Addr        Size        Decimal Bytes (Attributes)
--------------------------------        ----        ----        ------- ----- ------------
_CODE_3                             00034000    00004000 =       16384. bytes (REL,CON)

      Value  Global                              Global Defined In Module
      -----  --------------------------------   ------------------------
     00034000  _load_init                         data_manager
     00034013  _spritesheet_none_far              data_manager
     00034016  _load_bkg_tileset                  data_manager
     000340F3  _load_background                   data_manager
     00034191  _load_sprite                       data_manager
     000341E4  _load_bounds                       data_manager
     00034201  _do_load_palette                   data_manager
     00034286  _load_scene                        data_manager
     000348E6  _load_player                       data_manager
     0003492F  _load_emote                        data_manager
     00034948  _set_sgb_border                    sgb_border
     00034B32  ___func_bg_map2_tileset            bg_map2_tileset
     00034B32  _bg_map2_tileset                   bg_map2_tileset
     00035614  ___func_bg_map3_tileset            bg_map3_tileset
     00035614  _bg_map3_tileset                   bg_map3_tileset
     00036096  ___func_bg_mmmmmmmmmmmmmap_tiles   bg_mmmmmmmmmmmmmap_tileset
     00036096  _bg_mmmmmmmmmmmmmap_tileset        bg_mmmmmmmmmmmmmap_tileset
     000374FF  _song_tronimal_echoexample_Data    song_tronimal_echoexample_Da
     00037FEB  _song_win_Data                     song_win_Data

ASxxxx Linker V03.00/V05.40 + sdld,  page 63.
Hexadecimal  [32-Bits]

Area                                    Addr        Size        Decimal Bytes (Attributes)
--------------------------------        ----        ----        ------- ----- ------------
_CODE_7                             00074000    00003FFB =       16379. bytes (REL,CON)

      Value  Global                              Global Defined In Module
      -----  --------------------------------   ------------------------
     00074000  _events_init                       events
     00074040  _timers_init                       events
     00074080  _scroll_rect                       
     000740BD  ___func_VM_GBPRINTER               vm_gbprinter
     000740BD  _vm_print_detect                   vm_gbprinter
     0007410C  _vm_print_overlay                  vm_gbprinter
     00074161  ___func_VM_LOAD_SAVE               vm_load_save
     00074161  _vm_save_clear                     vm_load_save
     00074170  _vm_save_peek                      vm_load_save
     000741F2  ___func_VM_SCENE                   vm_scene
     000741F2  _vm_scene_push                     vm_scene
     00074268  _vm_scene_pop                      vm_scene
     00074276  _vm_scene_pop_all                  vm_scene
     00074281  _vm_scene_stack_reset              vm_scene
     0007428A  _actor_0_interact                  actor_0_interact
     0007429D  GBVM$actor_0_interact$04e514f1_5   actor_0_interact
     000742AF  GBVM$actor_0_interact$fa19ea1a_e   actor_0_interact
     000742C7  _actor_1_interact                  actor_1_interact
     000742DA  GBVM$actor_1_interact$bff27679_9   actor_1_interact
     000742EC  GBVM$actor_1_interact$76906cf8_b   actor_1_interact
     00074304  _actor_10_interact                 actor_10_interact
     00074317  GBVM$actor_10_interact$6857650c_   actor_10_interact
     00074329  GBVM$actor_10_interact$16bbe8ae_   actor_10_interact
     00074341  _actor_12_interact                 actor_12_interact
     00074354  GBVM$actor_12_interact$d4d9632b_   actor_12_interact
     00074366  GBVM$actor_12_interact$ec42b6d3_   actor_12_interact
     0007437E  _actor_13_interact                 actor_13_interact
     00074391  GBVM$actor_13_interact$8867d4e2_   actor_13_interact
     000743A3  GBVM$actor_13_interact$254e991e_   actor_13_interact
     000743BB  _actor_14_interact                 actor_14_interact
     000743CE  GBVM$actor_14_interact$22c7e791_   actor_14_interact
     000743E0  GBVM$actor_14_interact$22a7f6c6_   actor_14_interact
     000743F8  _actor_15_interact                 actor_15_interact
     0007440B  GBVM$actor_15_interact$798aa241_   actor_15_interact
     0007441D  GBVM$actor_15_interact$86bd5902_   actor_15_interact
     00074435  _actor_16_interact                 actor_16_interact
     00074448  GBVM$actor_16_interact$55b2e118_   actor_16_interact
     0007445A  GBVM$actor_16_interact$604f00bf_   actor_16_interact
     00074472  _actor_17_interact                 actor_17_interact
     00074485  GBVM$actor_17_interact$e580aa3c_   actor_17_interact
     00074497  GBVM$actor_17_interact$cf3f734b_   actor_17_interact
     000744AF  _actor_18_interact                 actor_18_interact
     000744C2  GBVM$actor_18_interact$5d90b4e9_   actor_18_interact
     000744D4  GBVM$actor_18_interact$e7306870_   actor_18_interact
     000744EC  _actor_2_interact                  actor_2_interact
     000744FF  GBVM$actor_2_interact$32a3cd26_6   actor_2_interact
     00074511  GBVM$actor_2_interact$0b749f66_9   actor_2_interact
     00074529  _actor_20_interact                 actor_20_interact
     0007453C  GBVM$actor_20_interact$057cca38_   actor_20_interact
     0007454E  GBVM$actor_20_interact$bec96dea_   actor_20_interact
ASxxxx Linker V03.00/V05.40 + sdld,  page 64.
Hexadecimal  [32-Bits]

Area                                    Addr        Size        Decimal Bytes (Attributes)
--------------------------------        ----        ----        ------- ----- ------------
_CODE_7                             00074000    00003FFB =       16379. bytes (REL,CON)

      Value  Global                              Global Defined In Module
      -----  --------------------------------   ------------------------
     00074566  _actor_21_interact                 actor_21_interact
     00074579  GBVM$actor_21_interact$7c46aaa0_   actor_21_interact
     0007458B  GBVM$actor_21_interact$1233a3f7_   actor_21_interact
     000745A3  _actor_22_interact                 actor_22_interact
     000745B6  GBVM$actor_22_interact$510dbacc_   actor_22_interact
     000745C8  GBVM$actor_22_interact$96e75a17_   actor_22_interact
     000745E0  _actor_23_interact                 actor_23_interact
     000745F3  GBVM$actor_23_interact$0b630d8c_   actor_23_interact
     00074605  GBVM$actor_23_interact$1fd4731f_   actor_23_interact
     0007461D  _actor_24_interact                 actor_24_interact
     00074630  GBVM$actor_24_interact$fcc6cecc_   actor_24_interact
     00074642  GBVM$actor_24_interact$28e8ab8c_   actor_24_interact
     0007465A  _actor_25_interact                 actor_25_interact
     0007466D  GBVM$actor_25_interact$789c9be5_   actor_25_interact
     0007467F  GBVM$actor_25_interact$b8c4c3c0_   actor_25_interact
     00074697  _actor_26_interact                 actor_26_interact
     000746AA  GBVM$actor_26_interact$d316afc3_   actor_26_interact
     000746BC  GBVM$actor_26_interact$f5783b7a_   actor_26_interact
     000746D4  _actor_27_interact                 actor_27_interact
     000746E7  GBVM$actor_27_interact$ca070986_   actor_27_interact
     000746FD  GBVM$actor_27_interact$67eaffdb_   actor_27_interact
     00074711  _actor_28_interact                 actor_28_interact
     00074724  GBVM$actor_28_interact$31734953_   actor_28_interact
     00074736  GBVM$actor_28_interact$447832cc_   actor_28_interact
     0007474E  _actor_29_interact                 actor_29_interact
     00074761  GBVM$actor_29_interact$fd88a853_   actor_29_interact
     00074773  GBVM$actor_29_interact$5ddb34c1_   actor_29_interact
     0007478B  _actor_3_interact                  actor_3_interact
     0007479E  GBVM$actor_3_interact$0b13e98d_c   actor_3_interact
     000747B0  GBVM$actor_3_interact$89023392_a   actor_3_interact
     000747C8  _actor_31_interact                 actor_31_interact
     000747DB  GBVM$actor_31_interact$878567b9_   actor_31_interact
     000747ED  GBVM$actor_31_interact$adbb4185_   actor_31_interact
     00074805  _actor_32_interact                 actor_32_interact
     00074818  GBVM$actor_32_interact$b8c973c3_   actor_32_interact
     0007482A  GBVM$actor_32_interact$f6804fcd_   actor_32_interact
     00074842  _actor_33_interact                 actor_33_interact
     00074855  GBVM$actor_33_interact$6bb84f8f_   actor_33_interact
     00074867  GBVM$actor_33_interact$6e8933fb_   actor_33_interact
     0007487F  _actor_33_update                   actor_33_update
     00074881  GBVM$actor_33_update$2a14a776_34   actor_33_update
     000748D4  GBVM$actor_33_update$41bb9f3e_17   actor_33_update
     0007492C  _actor_34_interact                 actor_34_interact
     0007493F  GBVM$actor_34_interact$1cef049a_   actor_34_interact
     00074951  GBVM$actor_34_interact$c021ca1b_   actor_34_interact
     00074969  _actor_35_interact                 actor_35_interact
     0007497C  GBVM$actor_35_interact$71b237a2_   actor_35_interact
     0007498E  GBVM$actor_35_interact$695f983c_   actor_35_interact
     000749A6  _actor_37_interact                 actor_37_interact
     000749B9  GBVM$actor_37_interact$59568b9d_   actor_37_interact
     000749CB  GBVM$actor_37_interact$18ff3eb5_   actor_37_interact
ASxxxx Linker V03.00/V05.40 + sdld,  page 65.
Hexadecimal  [32-Bits]

Area                                    Addr        Size        Decimal Bytes (Attributes)
--------------------------------        ----        ----        ------- ----- ------------
_CODE_7                             00074000    00003FFB =       16379. bytes (REL,CON)

      Value  Global                              Global Defined In Module
      -----  --------------------------------   ------------------------
     000749E3  _actor_37_update                   actor_37_update
     000749E5  GBVM$actor_37_update$792a163b_b4   actor_37_update
     00074A38  GBVM$actor_37_update$80d02880_0d   actor_37_update
     00074A90  _actor_38_interact                 actor_38_interact
     00074AA3  GBVM$actor_38_interact$db02f226_   actor_38_interact
     00074AB5  GBVM$actor_38_interact$ce3804dd_   actor_38_interact
     00074ACD  _actor_38_update                   actor_38_update
     00074ACF  GBVM$actor_38_update$dc13b267_7e   actor_38_update
     00074B22  GBVM$actor_38_update$aa85f4cc_4b   actor_38_update
     00074B7A  _actor_39_interact                 actor_39_interact
     00074B8D  GBVM$actor_39_interact$45ff271f_   actor_39_interact
     00074B9F  GBVM$actor_39_interact$8007ecb6_   actor_39_interact
     00074BB7  _actor_39_update                   actor_39_update
     00074BB9  GBVM$actor_39_update$d86946ef_a9   actor_39_update
     00074C0C  GBVM$actor_39_update$78d238e3_c6   actor_39_update
     00074C64  _actor_4_interact                  actor_4_interact
     00074C77  GBVM$actor_4_interact$f85743f8_e   actor_4_interact
     00074C89  GBVM$actor_4_interact$2485ba2d_e   actor_4_interact
     00074CA1  _actor_4_update                    actor_4_update
     00074CA3  GBVM$actor_4_update$4ce1f3cc_412   actor_4_update
     00074CF6  GBVM$actor_4_update$3fecd4a9_91a   actor_4_update
     00074D4E  _actor_40_interact                 actor_40_interact
     00074D61  GBVM$actor_40_interact$36fd1bf4_   actor_40_interact
     00074D73  GBVM$actor_40_interact$8166fc60_   actor_40_interact
     00074D8B  _actor_40_update                   actor_40_update
     00074D8D  GBVM$actor_40_update$59ff6bf2_4c   actor_40_update
     00074DE0  GBVM$actor_40_update$31231c9a_7b   actor_40_update
     00074E38  _actor_41_interact                 actor_41_interact
     00074E4B  GBVM$actor_41_interact$13121471_   actor_41_interact
     00074E5D  GBVM$actor_41_interact$110f7b84_   actor_41_interact
     00074E75  _actor_41_update                   actor_41_update
     00074E77  GBVM$actor_41_update$d16cede8_cf   actor_41_update
     00074ECA  GBVM$actor_41_update$8c224d00_79   actor_41_update
     00074F22  _actor_42_interact                 actor_42_interact
     00074F35  GBVM$actor_42_interact$b31ee1ae_   actor_42_interact
     00074F47  GBVM$actor_42_interact$8f2e5b2c_   actor_42_interact
     00074F5F  _actor_42_update                   actor_42_update
     00074F61  GBVM$actor_42_update$b468460f_bc   actor_42_update
     00074FB4  GBVM$actor_42_update$81362626_9c   actor_42_update
     0007500C  _actor_43_interact                 actor_43_interact
     0007501F  GBVM$actor_43_interact$8c56336a_   actor_43_interact
     00075031  GBVM$actor_43_interact$1ab2691a_   actor_43_interact
     00075049  _actor_43_update                   actor_43_update
     0007504B  GBVM$actor_43_update$55d72b03_ac   actor_43_update
     0007509E  GBVM$actor_43_update$e63bdef0_ca   actor_43_update
     000750F6  _actor_44_interact                 actor_44_interact
     00075109  GBVM$actor_44_interact$76f8fec7_   actor_44_interact
     0007511B  GBVM$actor_44_interact$ee2e16ff_   actor_44_interact
     00075133  _actor_44_update                   actor_44_update
     00075135  GBVM$actor_44_update$d57d2ee8_dd   actor_44_update
     00075188  GBVM$actor_44_update$6f42f068_5c   actor_44_update
ASxxxx Linker V03.00/V05.40 + sdld,  page 66.
Hexadecimal  [32-Bits]

Area                                    Addr        Size        Decimal Bytes (Attributes)
--------------------------------        ----        ----        ------- ----- ------------
_CODE_7                             00074000    00003FFB =       16379. bytes (REL,CON)

      Value  Global                              Global Defined In Module
      -----  --------------------------------   ------------------------
     000751E0  _actor_45_interact                 actor_45_interact
     000751F3  GBVM$actor_45_interact$9f032517_   actor_45_interact
     00075205  GBVM$actor_45_interact$a5ef995f_   actor_45_interact
     0007521D  _actor_45_update                   actor_45_update
     0007521F  GBVM$actor_45_update$91836026_5e   actor_45_update
     00075272  GBVM$actor_45_update$ae04d08c_e2   actor_45_update
     000752CA  _actor_46_interact                 actor_46_interact
     000752DD  GBVM$actor_46_interact$2efa56f7_   actor_46_interact
     000752EF  GBVM$actor_46_interact$5666203d_   actor_46_interact
     00075307  _actor_46_update                   actor_46_update
     00075309  GBVM$actor_46_update$76c9097c_16   actor_46_update
     0007535C  GBVM$actor_46_update$952f9183_ab   actor_46_update
     000753B4  _actor_48_interact                 actor_48_interact
     000753C7  GBVM$actor_48_interact$8e78b2d1_   actor_48_interact
     000753D9  GBVM$actor_48_interact$c1c4fc81_   actor_48_interact
     000753F1  _actor_48_update                   actor_48_update
     000753F3  GBVM$actor_48_update$6c562102_5b   actor_48_update
     00075446  GBVM$actor_48_update$48241f6e_7a   actor_48_update
     0007549E  _actor_49_interact                 actor_49_interact
     000754B1  GBVM$actor_49_interact$dcfc3fc6_   actor_49_interact
     000754C3  GBVM$actor_49_interact$7a934e9f_   actor_49_interact
     000754DB  _actor_49_update                   actor_49_update
     000754DD  GBVM$actor_49_update$3970029f_a3   actor_49_update
     00075530  GBVM$actor_49_update$aa8741f8_6d   actor_49_update
     00075588  _actor_50_interact                 actor_50_interact
     0007559B  GBVM$actor_50_interact$932b90d9_   actor_50_interact
     000755AD  GBVM$actor_50_interact$5a2b9c3c_   actor_50_interact
     000755C5  _actor_51_interact                 actor_51_interact
     000755D8  GBVM$actor_51_interact$35a02ac1_   actor_51_interact
     000755EA  GBVM$actor_51_interact$237c3966_   actor_51_interact
     00075602  _actor_51_update                   actor_51_update
     00075604  GBVM$actor_51_update$d365c8e9_f7   actor_51_update
     00075657  GBVM$actor_51_update$df9c4830_f4   actor_51_update
     000756AF  _actor_52_interact                 actor_52_interact
     000756C2  GBVM$actor_52_interact$c661b330_   actor_52_interact
     000756D4  GBVM$actor_52_interact$dbc28a80_   actor_52_interact
     000756EC  _actor_52_update                   actor_52_update
     000756EE  GBVM$actor_52_update$189afec3_c3   actor_52_update
     00075741  GBVM$actor_52_update$717e36de_f1   actor_52_update
     00075799  _actor_54_interact                 actor_54_interact
     000757AC  GBVM$actor_54_interact$3245489e_   actor_54_interact
     000757BE  GBVM$actor_54_interact$2085919d_   actor_54_interact
     000757D6  _actor_54_update                   actor_54_update
     000757D8  GBVM$actor_54_update$c8a65995_d8   actor_54_update
     0007582B  GBVM$actor_54_update$9362a6a0_da   actor_54_update
     00075883  _actor_55_interact                 actor_55_interact
     00075896  GBVM$actor_55_interact$9c58180f_   actor_55_interact
     000758A8  GBVM$actor_55_interact$7f432b1c_   actor_55_interact
     000758C0  _actor_55_update                   actor_55_update
     000758C2  GBVM$actor_55_update$ba380837_19   actor_55_update
     00075915  GBVM$actor_55_update$f234379a_fb   actor_55_update
ASxxxx Linker V03.00/V05.40 + sdld,  page 67.
Hexadecimal  [32-Bits]

Area                                    Addr        Size        Decimal Bytes (Attributes)
--------------------------------        ----        ----        ------- ----- ------------
_CODE_7                             00074000    00003FFB =       16379. bytes (REL,CON)

      Value  Global                              Global Defined In Module
      -----  --------------------------------   ------------------------
     0007596D  _actor_56_interact                 actor_56_interact
     00075980  GBVM$actor_56_interact$5a2d0c56_   actor_56_interact
     00075992  GBVM$actor_56_interact$0b282a12_   actor_56_interact
     000759AA  _actor_56_update                   actor_56_update
     000759AC  GBVM$actor_56_update$02083d2c_b8   actor_56_update
     000759FF  GBVM$actor_56_update$4fb97719_1c   actor_56_update
     00075A57  _actor_57_interact                 actor_57_interact
     00075A6A  GBVM$actor_57_interact$1d1b4087_   actor_57_interact
     00075A7C  GBVM$actor_57_interact$e8e86522_   actor_57_interact
     00075A94  _actor_57_update                   actor_57_update
     00075A96  GBVM$actor_57_update$6d7e0282_0c   actor_57_update
     00075AE9  GBVM$actor_57_update$053effc1_d1   actor_57_update
     00075B41  _actor_58_interact                 actor_58_interact
     00075B54  GBVM$actor_58_interact$03efbccb_   actor_58_interact
     00075B66  GBVM$actor_58_interact$ba76b1c7_   actor_58_interact
     00075B7E  _actor_59_interact                 actor_59_interact
     00075B91  GBVM$actor_59_interact$53c7dd58_   actor_59_interact
     00075BA3  GBVM$actor_59_interact$54718bef_   actor_59_interact
     00075BBB  _actor_6_interact                  actor_6_interact
     00075BCE  GBVM$actor_6_interact$943545da_4   actor_6_interact
     00075BE0  GBVM$actor_6_interact$87e56b94_3   actor_6_interact
     00075BF8  _actor_6_update                    actor_6_update
     00075BFA  GBVM$actor_6_update$8a08aa51_a2e   actor_6_update
     00075C4D  GBVM$actor_6_update$4e23284f_0a6   actor_6_update
     00075CA5  _actor_61_interact                 actor_61_interact
     00075CB8  GBVM$actor_61_interact$667a82ff_   actor_61_interact
     00075CCA  GBVM$actor_61_interact$575184fe_   actor_61_interact
     00075CE2  _actor_61_update                   actor_61_update
     00075CE4  GBVM$actor_61_update$0f9af145_0a   actor_61_update
     00075D37  GBVM$actor_61_update$2b86b3ba_e1   actor_61_update
     00075D8F  _actor_62_interact                 actor_62_interact
     00075DA2  GBVM$actor_62_interact$813dd1ce_   actor_62_interact
     00075DB4  GBVM$actor_62_interact$77597b6a_   actor_62_interact
     00075DCC  _actor_62_update                   actor_62_update
     00075DCE  GBVM$actor_62_update$71c8b19d_21   actor_62_update
     00075E21  GBVM$actor_62_update$58385550_4d   actor_62_update
     00075E79  _actor_63_interact                 actor_63_interact
     00075E8C  GBVM$actor_63_interact$92d8bebd_   actor_63_interact
     00075E9E  GBVM$actor_63_interact$30bf655e_   actor_63_interact
     00075EB6  _actor_63_update                   actor_63_update
     00075EB8  GBVM$actor_63_update$94a5bca8_45   actor_63_update
     00075F0B  GBVM$actor_63_update$a4e1bab4_70   actor_63_update
     00075F63  _actor_64_interact                 actor_64_interact
     00075F76  GBVM$actor_64_interact$498c5a94_   actor_64_interact
     00075F88  GBVM$actor_64_interact$439c3c39_   actor_64_interact
     00075FA0  _actor_64_update                   actor_64_update
     00075FA2  GBVM$actor_64_update$f829a088_a3   actor_64_update
     00075FF5  GBVM$actor_64_update$8caec0e9_15   actor_64_update
     0007604D  _actor_65_interact                 actor_65_interact
     00076060  GBVM$actor_65_interact$0720c2a5_   actor_65_interact
     00076072  GBVM$actor_65_interact$b3ac5104_   actor_65_interact
ASxxxx Linker V03.00/V05.40 + sdld,  page 68.
Hexadecimal  [32-Bits]

Area                                    Addr        Size        Decimal Bytes (Attributes)
--------------------------------        ----        ----        ------- ----- ------------
_CODE_7                             00074000    00003FFB =       16379. bytes (REL,CON)

      Value  Global                              Global Defined In Module
      -----  --------------------------------   ------------------------
     0007608A  _actor_65_update                   actor_65_update
     0007608C  GBVM$actor_65_update$52f0da0b_75   actor_65_update
     000760DF  GBVM$actor_65_update$e8d6f9f7_43   actor_65_update
     00076137  _actor_66_interact                 actor_66_interact
     0007614A  GBVM$actor_66_interact$f5289854_   actor_66_interact
     0007615C  GBVM$actor_66_interact$29012352_   actor_66_interact
     00076174  _actor_66_update                   actor_66_update
     00076176  GBVM$actor_66_update$3f205978_27   actor_66_update
     000761C9  GBVM$actor_66_update$852f98d8_59   actor_66_update
     00076221  _actor_67_interact                 actor_67_interact
     00076234  GBVM$actor_67_interact$17e9e9dc_   actor_67_interact
     00076246  GBVM$actor_67_interact$c8298e6a_   actor_67_interact
     0007625E  _actor_67_update                   actor_67_update
     00076260  GBVM$actor_67_update$43ebab4f_a1   actor_67_update
     000762B3  GBVM$actor_67_update$d642d5c5_af   actor_67_update
     0007630B  _actor_68_interact                 actor_68_interact
     0007631E  GBVM$actor_68_interact$61db77e9_   actor_68_interact
     00076330  GBVM$actor_68_interact$2d06b54e_   actor_68_interact
     00076348  _actor_68_update                   actor_68_update
     0007634A  GBVM$actor_68_update$565de721_e9   actor_68_update
     0007639D  GBVM$actor_68_update$89b30c07_40   actor_68_update
     000763F5  _actor_69_interact                 actor_69_interact
     00076408  GBVM$actor_69_interact$4a4504cf_   actor_69_interact
     0007641A  GBVM$actor_69_interact$dd78cf4e_   actor_69_interact
     00076432  _actor_69_update                   actor_69_update
     00076434  GBVM$actor_69_update$126d5d9a_11   actor_69_update
     00076487  GBVM$actor_69_update$2b31baee_19   actor_69_update
     000764DF  _actor_7_interact                  actor_7_interact
     000764F2  GBVM$actor_7_interact$fa3632a7_e   actor_7_interact
     00076504  GBVM$actor_7_interact$6c75fef0_d   actor_7_interact
     0007651C  _actor_7_update                    actor_7_update
     0007651E  GBVM$actor_7_update$386e5b98_99c   actor_7_update
     00076571  GBVM$actor_7_update$45b3b2c2_8da   actor_7_update
     000765C9  _actor_70_interact                 actor_70_interact
     000765DC  GBVM$actor_70_interact$e7b31a9d_   actor_70_interact
     000765EE  GBVM$actor_70_interact$2bf43d76_   actor_70_interact
     00076606  _actor_70_update                   actor_70_update
     00076608  GBVM$actor_70_update$5706e825_db   actor_70_update
     0007665B  GBVM$actor_70_update$9322ab94_a4   actor_70_update
     000766B3  _actor_8_interact                  actor_8_interact
     000766C6  GBVM$actor_8_interact$2324f730_9   actor_8_interact
     000766D8  GBVM$actor_8_interact$da288da5_8   actor_8_interact
     000766F0  _actor_9_interact                  actor_9_interact
     00076703  GBVM$actor_9_interact$1bda1aa1_d   actor_9_interact
     00076715  GBVM$actor_9_interact$1d880e03_0   actor_9_interact
     0007672D  _actor_9_update                    actor_9_update
     0007672F  GBVM$actor_9_update$fd2229de_c51   actor_9_update
     00076782  GBVM$actor_9_update$42a32243_d13   actor_9_update
     000767DA  ___func_bg_placeholder_tileset     bg_placeholder_tileset
     000767DA  _bg_placeholder_tileset            bg_placeholder_tileset
     0007681C  ___func_frame_image                frame_image
ASxxxx Linker V03.00/V05.40 + sdld,  page 69.
Hexadecimal  [32-Bits]

Area                                    Addr        Size        Decimal Bytes (Attributes)
--------------------------------        ----        ----        ------- ----- ------------
_CODE_7                             00074000    00003FFB =       16379. bytes (REL,CON)

      Value  Global                              Global Defined In Module
      -----  --------------------------------   ------------------------
     0007681C  _frame_image                       frame_image
     000768AC  ___func_scene_0                    scene_0
     000768AC  _scene_0                           scene_0
     000768E7  _scene_1_init                      scene_1_init
     000768EA  GBVM$scene_1_init$c2158a19_41cf_   scene_1_init
     000768EE  GBVM$scene_1_init$9d2134ad_33c0_   scene_1_init
     000768F8  GBVM$scene_1_init$1aaa3dc9_f7db_   scene_1_init
     00076914  GBVM$scene_1_init$autofade$075a1   scene_1_init
     00076920  ___func_scene_1_triggers           scene_1_triggers
     00076920  _scene_1_triggers                  scene_1_triggers
     00076960  ___func_scene_1                    scene_1
     00076960  _scene_1                           scene_1
     0007699B  ___func_scene_10_triggers          scene_10_triggers
     0007699B  _scene_10_triggers                 scene_10_triggers
     000769DB  ___func_scene_10                   scene_10
     000769DB  _scene_10                          scene_10
     00076A16  ___func_scene_11_triggers          scene_11_triggers
     00076A16  _scene_11_triggers                 scene_11_triggers
     00076A5E  ___func_scene_11                   scene_11
     00076A5E  _scene_11                          scene_11
     00076A99  _scene_12_init                     scene_12_init
     00076A9C  GBVM$scene_12_init$cc0b6c37_4d95   scene_12_init
     00076AA0  GBVM$scene_12_init$aa6a82ac_b3cc   scene_12_init
     00076AAA  GBVM$scene_12_init$bb93aec0_ba43   scene_12_init
     00076AC6  GBVM$scene_12_init$autofade$9f46   scene_12_init
     00076AD2  ___func_scene_12_triggers          scene_12_triggers
     00076AD2  _scene_12_triggers                 scene_12_triggers
     00076B12  ___func_scene_12                   scene_12
     00076B12  _scene_12                          scene_12
     00076B4D  ___func_scene_13_triggers          scene_13_triggers
     00076B4D  _scene_13_triggers                 scene_13_triggers
     00076B8D  ___func_scene_13                   scene_13
     00076B8D  _scene_13                          scene_13
     00076BC8  ___func_scene_14_triggers          scene_14_triggers
     00076BC8  _scene_14_triggers                 scene_14_triggers
     00076C10  ___func_scene_14                   scene_14
     00076C10  _scene_14                          scene_14
     00076C4B  ___func_scene_15                   scene_15
     00076C4B  _scene_15                          scene_15
     00076C86  ___func_scene_16                   scene_16
     00076C86  _scene_16                          scene_16
     00076CC1  ___func_scene_17                   scene_17
     00076CC1  _scene_17                          scene_17
     00076CFC  ___func_scene_18                   scene_18
     00076CFC  _scene_18                          scene_18
     00076D37  ___func_scene_2                    scene_2
     00076D37  _scene_2                           scene_2
     00076D72  ___func_scene_4                    scene_4
     00076D72  _scene_4                           scene_4
     00076DAD  ___func_scene_5                    scene_5
     00076DAD  _scene_5                           scene_5
ASxxxx Linker V03.00/V05.40 + sdld,  page 70.
Hexadecimal  [32-Bits]

Area                                    Addr        Size        Decimal Bytes (Attributes)
--------------------------------        ----        ----        ------- ----- ------------
_CODE_7                             00074000    00003FFB =       16379. bytes (REL,CON)

      Value  Global                              Global Defined In Module
      -----  --------------------------------   ------------------------
     00076DE8  ___func_scene_6_triggers           scene_6_triggers
     00076DE8  _scene_6_triggers                  scene_6_triggers
     00076E28  ___func_scene_6                    scene_6
     00076E28  _scene_6                           scene_6
     00076E63  ___func_scene_7_triggers           scene_7_triggers
     00076E63  _scene_7_triggers                  scene_7_triggers
     00076EAB  ___func_scene_7                    scene_7
     00076EAB  _scene_7                           scene_7
     00076EE6  _scene_8_init                      scene_8_init
     00076EE9  GBVM$scene_8_init$eea6ca2f_7681_   scene_8_init
     00076EED  GBVM$scene_8_init$910a4c3e_66e4_   scene_8_init
     00076EF5  GBVM$scene_8_init$autofade$3c428   scene_8_init
     00076F00  GBVM$scene_8_init$2abc6c6b_0952_   scene_8_init
     00076F36  GBVM$scene_8_init$b1efd21b_07be_   scene_8_init
     00076F69  ___func_scene_8                    scene_8
     00076F69  _scene_8                           scene_8
     00076FA4  _scene_9_init                      scene_9_init
     00076FA7  GBVM$scene_9_init$528581b3_4c99_   scene_9_init
     00076FAB  GBVM$scene_9_init$62ef430c_b8b0_   scene_9_init
     00076FB5  GBVM$scene_9_init$c7cc7f2f_2880_   scene_9_init
     00076FD1  GBVM$scene_9_init$autofade$bd270   scene_9_init
     00076FDD  ___func_scene_9_triggers           scene_9_triggers
     00076FDD  _scene_9_triggers                  scene_9_triggers
     0007701D  ___func_scene_9                    scene_9
     0007701D  _scene_9                           scene_9
     00077058  ___func_sprite_actor_animated      sprite_actor_animated
     00077058  _sprite_actor_animated_metasprit   sprite_actor_animated
     00077064  _sprite_actor_animated_metasprit   sprite_actor_animated
     00077070  _sprite_actor_animated_metasprit   sprite_actor_animated
     0007707C  _sprite_actor_animated_metasprit   sprite_actor_animated
     00077088  _sprite_actor_animated_metasprit   sprite_actor_animated
     00077094  _sprite_actor_animated_metasprit   sprite_actor_animated
     000770A0  _sprite_actor_animated_metasprit   sprite_actor_animated
     000770AC  _sprite_actor_animated_metasprit   sprite_actor_animated
     000770B8  _sprite_actor_animated_metasprit   sprite_actor_animated
     000770D0  _sprite_actor_animated_animation   sprite_actor_animated
     000770E0  _sprite_actor_animated_animation   sprite_actor_animated
     000770E2  _sprite_actor_animated             sprite_actor_animated
     000770F5  ___func_sprite_dog_tileset         sprite_dog_tileset
     000770F5  _sprite_dog_tileset                sprite_dog_tileset
     00077137  ___func_sprite_dog                 sprite_dog
     00077137  _sprite_dog_metasprite_0           sprite_dog
     0007713B  _sprite_dog_metasprite_1           sprite_dog
     00077147  _sprite_dog_metasprite_2           sprite_dog
     00077153  _sprite_dog_metasprites            sprite_dog
     00077159  _sprite_dog_animations             sprite_dog
     00077169  _sprite_dog_animations_lookup      sprite_dog
     0007716B  _sprite_dog                        sprite_dog
     0007717E  ___func_sprite_fcarrr_tileset      sprite_fcarrr_tileset
     0007717E  _sprite_fcarrr_tileset             sprite_fcarrr_tileset
     00077200  ___func_sprite_fcarrr              sprite_fcarrr
ASxxxx Linker V03.00/V05.40 + sdld,  page 71.
Hexadecimal  [32-Bits]

Area                                    Addr        Size        Decimal Bytes (Attributes)
--------------------------------        ----        ----        ------- ----- ------------
_CODE_7                             00074000    00003FFB =       16379. bytes (REL,CON)

      Value  Global                              Global Defined In Module
      -----  --------------------------------   ------------------------
     00077200  _sprite_fcarrr_metasprite_0        sprite_fcarrr
     00077204  _sprite_fcarrr_metasprite_1        sprite_fcarrr
     00077218  _sprite_fcarrr_metasprite_2        sprite_fcarrr
     0007722C  _sprite_fcarrr_metasprites         sprite_fcarrr
     00077232  _sprite_fcarrr_animations          sprite_fcarrr
     00077242  _sprite_fcarrr_animations_lookup   sprite_fcarrr
     00077244  _sprite_fcarrr                     sprite_fcarrr
     00077257  ___func_sprite_fox_tileset         sprite_fox_tileset
     00077257  _sprite_fox_tileset                sprite_fox_tileset
     00077299  ___func_sprite_fox                 sprite_fox
     00077299  _sprite_fox_metasprite_0           sprite_fox
     0007729D  _sprite_fox_metasprite_1           sprite_fox
     000772A9  _sprite_fox_metasprite_2           sprite_fox
     000772B5  _sprite_fox_metasprites            sprite_fox
     000772BB  _sprite_fox_animations             sprite_fox
     000772CB  _sprite_fox_animations_lookup      sprite_fox
     000772CD  _sprite_fox                        sprite_fox
     000772E0  ___func_sprite_log_copy_tileset    sprite_log_copy_tileset
     000772E0  _sprite_log_copy_tileset           sprite_log_copy_tileset
     00077362  ___func_sprite_log_tileset         sprite_log_tileset
     00077362  _sprite_log_tileset                sprite_log_tileset
     000773E4  ___func_sprite_log                 sprite_log
     000773E4  _sprite_log_metasprite_0           sprite_log
     000773E8  _sprite_log_metasprite_1           sprite_log
     00077404  _sprite_log_metasprite_2           sprite_log
     00077420  _sprite_log_metasprites            sprite_log
     00077426  _sprite_log_animations             sprite_log
     00077436  _sprite_log_animations_lookup      sprite_log
     00077438  _sprite_log                        sprite_log
     0007744B  ___func_sprite_skateboard_man_sp   sprite_skateboard_man_sprit_
     0007744B  _sprite_skateboard_man_sprit_til   sprite_skateboard_man_sprit_
     000774CD  ___func_sprite_skateboard_man_sp   sprite_skateboard_man_sprit
     000774CD  _sprite_skateboard_man_sprit_met   sprite_skateboard_man_sprit
     000774D1  _sprite_skateboard_man_sprit_met   sprite_skateboard_man_sprit
     000774E5  _sprite_skateboard_man_sprit_met   sprite_skateboard_man_sprit
     000774F9  _sprite_skateboard_man_sprit_met   sprite_skateboard_man_sprit
     000774FF  _sprite_skateboard_man_sprit_ani   sprite_skateboard_man_sprit
     0007750F  _sprite_skateboard_man_sprit_ani   sprite_skateboard_man_sprit
     00077511  _sprite_skateboard_man_sprit       sprite_skateboard_man_sprit
     00077524  ___func_sprite_skunk_player        sprite_skunk_player
     00077524  _sprite_skunk_player_metasprite_   sprite_skunk_player
     00077530  _sprite_skunk_player_metasprite_   sprite_skunk_player
     0007753C  _sprite_skunk_player_metasprite_   sprite_skunk_player
     00077548  _sprite_skunk_player_metasprite_   sprite_skunk_player
     00077554  _sprite_skunk_player_metasprite_   sprite_skunk_player
     00077560  _sprite_skunk_player_metasprite_   sprite_skunk_player
     0007756C  _sprite_skunk_player_metasprite_   sprite_skunk_player
     00077578  _sprite_skunk_player_metasprite_   sprite_skunk_player
     00077584  _sprite_skunk_player_metasprites   sprite_skunk_player
     0007759C  _sprite_skunk_player_animations    sprite_skunk_player
     000775AC  _sprite_skunk_player_animations_   sprite_skunk_player
ASxxxx Linker V03.00/V05.40 + sdld,  page 72.
Hexadecimal  [32-Bits]

Area                                    Addr        Size        Decimal Bytes (Attributes)
--------------------------------        ----        ----        ------- ----- ------------
_CODE_7                             00074000    00003FFB =       16379. bytes (REL,CON)

      Value  Global                              Global Defined In Module
      -----  --------------------------------   ------------------------
     000775AE  _sprite_skunk_player               sprite_skunk_player
     000775C1  ___func_tileset_default_frame      tileset_default_frame
     000775C1  _tileset_default_frame             tileset_default_frame
     00077653  _trigger_0_interact                trigger_0_interact
     00077656  GBVM$trigger_0_interact$0caee599   trigger_0_interact
     0007765C  GBVM$trigger_0_interact$b54c9a57   trigger_0_interact
     0007768F  _trigger_1_interact                trigger_1_interact
     00077692  GBVM$trigger_1_interact$3ef48e03   trigger_1_interact
     00077698  GBVM$trigger_1_interact$89876315   trigger_1_interact
     000776CB  _trigger_11_interact               trigger_11_interact
     000776CE  GBVM$trigger_11_interact$bd377f8   trigger_11_interact
     000776E0  GBVM$trigger_11_interact$314f5b5   trigger_11_interact
     000776E5  GBVM$trigger_11_interact$2edf569   trigger_11_interact
     000776FC  _trigger_12_interact               trigger_12_interact
     000776FF  GBVM$trigger_12_interact$7927f12   trigger_12_interact
     00077711  GBVM$trigger_12_interact$e6c53d1   trigger_12_interact
     00077716  GBVM$trigger_12_interact$4880eec   trigger_12_interact
     0007772D  _trigger_13_interact               trigger_13_interact
     00077730  GBVM$trigger_13_interact$753c6fe   trigger_13_interact
     00077736  GBVM$trigger_13_interact$dd6d302   trigger_13_interact
     00077769  _trigger_14_interact               trigger_14_interact
     0007776C  GBVM$trigger_14_interact$f322dbf   trigger_14_interact
     00077772  GBVM$trigger_14_interact$3ab1d7c   trigger_14_interact
     000777A5  _trigger_15_interact               trigger_15_interact
     000777A8  GBVM$trigger_15_interact$e4006b0   trigger_15_interact
     000777AE  GBVM$trigger_15_interact$1e2ba5d   trigger_15_interact
     000777E1  _trigger_16_interact               trigger_16_interact
     000777E4  GBVM$trigger_16_interact$f90366e   trigger_16_interact
     000777EA  GBVM$trigger_16_interact$dc0c92f   trigger_16_interact
     0007781D  _trigger_2_interact                trigger_2_interact
     00077820  GBVM$trigger_2_interact$4665b9a3   trigger_2_interact
     00077826  GBVM$trigger_2_interact$9db63716   trigger_2_interact
     00077859  _trigger_20_interact               trigger_20_interact
     0007785C  GBVM$trigger_20_interact$d87da20   trigger_20_interact
     00077862  GBVM$trigger_20_interact$b930258   trigger_20_interact
     00077895  _trigger_21_interact               trigger_21_interact
     00077898  GBVM$trigger_21_interact$8fcaf4d   trigger_21_interact
     0007789E  GBVM$trigger_21_interact$99303b1   trigger_21_interact
     000778D1  _trigger_22_interact               trigger_22_interact
     000778D4  GBVM$trigger_22_interact$f45da85   trigger_22_interact
     000778DA  GBVM$trigger_22_interact$f8a0021   trigger_22_interact
     0007790D  _trigger_23_interact               trigger_23_interact
     00077910  GBVM$trigger_23_interact$bdc61ed   trigger_23_interact
     00077916  GBVM$trigger_23_interact$1293ffa   trigger_23_interact
     00077949  _trigger_25_interact               trigger_25_interact
     0007794C  GBVM$trigger_25_interact$2d4398f   trigger_25_interact
     0007795E  GBVM$trigger_25_interact$db8f983   trigger_25_interact
     00077963  GBVM$trigger_25_interact$4dc4bc4   trigger_25_interact
     0007797A  _trigger_26_interact               trigger_26_interact
     0007797D  GBVM$trigger_26_interact$7fca520   trigger_26_interact
     00077983  GBVM$trigger_26_interact$e066aad   trigger_26_interact
ASxxxx Linker V03.00/V05.40 + sdld,  page 73.
Hexadecimal  [32-Bits]

Area                                    Addr        Size        Decimal Bytes (Attributes)
--------------------------------        ----        ----        ------- ----- ------------
_CODE_7                             00074000    00003FFB =       16379. bytes (REL,CON)

      Value  Global                              Global Defined In Module
      -----  --------------------------------   ------------------------
     000779B6  _trigger_29_interact               trigger_29_interact
     000779B9  GBVM$trigger_29_interact$0fce26b   trigger_29_interact
     000779CB  GBVM$trigger_29_interact$20903b8   trigger_29_interact
     000779D0  GBVM$trigger_29_interact$21361a7   trigger_29_interact
     000779E7  _trigger_3_interact                trigger_3_interact
     000779EA  GBVM$trigger_3_interact$2c74948d   trigger_3_interact
     000779F0  GBVM$trigger_3_interact$fb7e2b7f   trigger_3_interact
     00077A23  _trigger_32_interact               trigger_32_interact
     00077A26  GBVM$trigger_32_interact$45aa54c   trigger_32_interact
     00077A38  GBVM$trigger_32_interact$51e571e   trigger_32_interact
     00077A3D  GBVM$trigger_32_interact$91db578   trigger_32_interact
     00077A54  _trigger_33_interact               trigger_33_interact
     00077A57  GBVM$trigger_33_interact$d74132d   trigger_33_interact
     00077A5D  GBVM$trigger_33_interact$aa9b773   trigger_33_interact
     00077A90  _trigger_34_interact               trigger_34_interact
     00077A93  GBVM$trigger_34_interact$0c22599   trigger_34_interact
     00077A99  GBVM$trigger_34_interact$112a09a   trigger_34_interact
     00077ACC  _trigger_35_interact               trigger_35_interact
     00077ACF  GBVM$trigger_35_interact$2870ede   trigger_35_interact
     00077AD5  GBVM$trigger_35_interact$743e6be   trigger_35_interact
     00077B08  _trigger_36_interact               trigger_36_interact
     00077B0B  GBVM$trigger_36_interact$199c175   trigger_36_interact
     00077B11  GBVM$trigger_36_interact$cf09e5b   trigger_36_interact
     00077B44  _trigger_40_interact               trigger_40_interact
     00077B47  GBVM$trigger_40_interact$1047f20   trigger_40_interact
     00077B4D  GBVM$trigger_40_interact$f1cf6f4   trigger_40_interact
     00077B80  _trigger_41_interact               trigger_41_interact
     00077B83  GBVM$trigger_41_interact$3401639   trigger_41_interact
     00077B89  GBVM$trigger_41_interact$56e70e0   trigger_41_interact
     00077BBC  _trigger_42_interact               trigger_42_interact
     00077BBF  GBVM$trigger_42_interact$740b833   trigger_42_interact
     00077BC5  GBVM$trigger_42_interact$f852a51   trigger_42_interact
     00077BF8  _trigger_43_interact               trigger_43_interact
     00077BFB  GBVM$trigger_43_interact$89fb56d   trigger_43_interact
     00077C01  GBVM$trigger_43_interact$7eb2106   trigger_43_interact
     00077C34  _trigger_46_interact               trigger_46_interact
     00077C37  GBVM$trigger_46_interact$b038e3c   trigger_46_interact
     00077C3D  GBVM$trigger_46_interact$c3cf4fb   trigger_46_interact
     00077C70  _trigger_47_interact               trigger_47_interact
     00077C73  GBVM$trigger_47_interact$8eb8a5f   trigger_47_interact
     00077C79  GBVM$trigger_47_interact$4cd2a82   trigger_47_interact
     00077CAC  _trigger_48_interact               trigger_48_interact
     00077CAF  GBVM$trigger_48_interact$4f4cc32   trigger_48_interact
     00077CB5  GBVM$trigger_48_interact$d290674   trigger_48_interact
     00077CE8  _trigger_49_interact               trigger_49_interact
     00077CEB  GBVM$trigger_49_interact$e175445   trigger_49_interact
     00077CF1  GBVM$trigger_49_interact$8960bad   trigger_49_interact
     00077D24  _trigger_5_interact                trigger_5_interact
     00077D27  GBVM$trigger_5_interact$3b854bbf   trigger_5_interact
     00077D2D  GBVM$trigger_5_interact$7b718de9   trigger_5_interact
     00077D60  _trigger_56_interact               trigger_56_interact
ASxxxx Linker V03.00/V05.40 + sdld,  page 74.
Hexadecimal  [32-Bits]

Area                                    Addr        Size        Decimal Bytes (Attributes)
--------------------------------        ----        ----        ------- ----- ------------
_CODE_7                             00074000    00003FFB =       16379. bytes (REL,CON)

      Value  Global                              Global Defined In Module
      -----  --------------------------------   ------------------------
     00077D63  GBVM$trigger_56_interact$15a7d22   trigger_56_interact
     00077D69  GBVM$trigger_56_interact$6ae15fc   trigger_56_interact
     00077D9C  _trigger_57_interact               trigger_57_interact
     00077D9F  GBVM$trigger_57_interact$172b754   trigger_57_interact
     00077DA5  GBVM$trigger_57_interact$6e2e91f   trigger_57_interact
     00077DD8  _trigger_58_interact               trigger_58_interact
     00077DDB  GBVM$trigger_58_interact$f386de7   trigger_58_interact
     00077DE1  GBVM$trigger_58_interact$9ea220b   trigger_58_interact
     00077E14  _trigger_59_interact               trigger_59_interact
     00077E17  GBVM$trigger_59_interact$0fe9ef1   trigger_59_interact
     00077E1D  GBVM$trigger_59_interact$65ba6b6   trigger_59_interact
     00077E50  _trigger_63_interact               trigger_63_interact
     00077E53  GBVM$trigger_63_interact$a721316   trigger_63_interact
     00077E59  GBVM$trigger_63_interact$e47c304   trigger_63_interact
     00077E8C  _trigger_64_interact               trigger_64_interact
     00077E8F  GBVM$trigger_64_interact$6ff5c11   trigger_64_interact
     00077E95  GBVM$trigger_64_interact$cb943c5   trigger_64_interact
     00077EC8  _trigger_65_interact               trigger_65_interact
     00077ECB  GBVM$trigger_65_interact$639cc2c   trigger_65_interact
     00077ED1  GBVM$trigger_65_interact$6722c77   trigger_65_interact
     00077F04  _trigger_66_interact               trigger_66_interact
     00077F07  GBVM$trigger_66_interact$72c1383   trigger_66_interact
     00077F0D  GBVM$trigger_66_interact$a363be8   trigger_66_interact
     00077F40  _trigger_7_interact                trigger_7_interact
     00077F43  GBVM$trigger_7_interact$f416b155   trigger_7_interact
     00077F49  GBVM$trigger_7_interact$33b7f613   trigger_7_interact
     00077F7C  _trigger_70_interact               trigger_70_interact
     00077F7F  GBVM$trigger_70_interact$9bcf5c2   trigger_70_interact
     00077F91  GBVM$trigger_70_interact$3f764e9   trigger_70_interact
     00077F96  GBVM$trigger_70_interact$3ff5667   trigger_70_interact
     00077FAC  GBVM$trigger_70_interact$88cf37b   trigger_70_interact
     00077FBF  _trigger_8_interact                trigger_8_interact
     00077FC2  GBVM$trigger_8_interact$2ab56439   trigger_8_interact
     00077FC8  GBVM$trigger_8_interact$c78a710c   trigger_8_interact
ASxxxx Linker V03.00/V05.40 + sdld,  page 75.
Hexadecimal  [32-Bits]

Area                                    Addr        Size        Decimal Bytes (Attributes)
--------------------------------        ----        ----        ------- ----- ------------
_HEADER_SIO0                        00000000    00000004 =           4. bytes (ABS,CON)

      Value  Global                              Global Defined In Module
      -----  --------------------------------   ------------------------
ASxxxx Linker V03.00/V05.40 + sdld,  page 76.
Hexadecimal  [32-Bits]

Area                                    Addr        Size        Decimal Bytes (Attributes)
--------------------------------        ----        ----        ------- ----- ------------
_HEADER_TIMER0                      00000000    00000004 =           4. bytes (ABS,CON)

      Value  Global                              Global Defined In Module
      -----  --------------------------------   ------------------------
ASxxxx Linker V03.00/V05.40 + sdld,  page 77.
Hexadecimal  [32-Bits]

Area                                    Addr        Size        Decimal Bytes (Attributes)
--------------------------------        ----        ----        ------- ----- ------------
_CODE_2                             00024000    00003FFC =       16380. bytes (REL,CON)

      Value  Global                              Global Defined In Module
      -----  --------------------------------   ------------------------
     00024000  _remove_LCD_ISRs                   interrupts
     0002401B  ___func_VM_UI                      vm_ui
     0002401B  _vm_display_text                   vm_ui
     00024049  _vm_switch_text_layer              vm_ui
     00024063  _vm_overlay_setpos                 vm_ui
     0002407D  _vm_overlay_wait                   vm_ui
     0002410D  _vm_overlay_move_to                vm_ui
     00024151  _vm_overlay_set_scroll             vm_ui
     0002418A  _vm_overlay_clear                  vm_ui
     0002422A  _vm_overlay_show                   vm_ui
     00024278  _vm_choice                         vm_ui
     00024393  _vm_set_font                       vm_ui
     000243C2  _vm_overlay_scroll                 vm_ui
     000243F9  _vm_overlay_set_submap             vm_ui
     00024432  _vm_overlay_set_submap_ex          vm_ui
     000244AE  _vm_overlay_set_map                vm_ui
     00024598  _vm_set_text_sound                 vm_ui
     000245B1  ___func_VM_MAIN                    vm
     000245B1  _vm_call                           vm
     000245F3  _vm_ret                            vm
     00024653  _vm_call_far                       vm
     000246D2  _vm_ret_far                        vm
     0002474A  _vm_push                           vm
     00024775  _vm_pop                            vm
     000247B0  _vm_loop                           vm
     0002483B  _vm_jump                           vm
     00024847  _wait_frames                       vm
     000248B4  _vm_invoke                         vm
     000249E1  _vm_join                           vm
     00024A43  _vm_terminate                      vm
     00024A70  _vm_if                             vm
     00024BB5  _vm_if_const                       vm
     00024CCA  _vm_push_value                     vm
     00024D1C  _vm_push_value_ind                 vm
     00024D91  _vm_push_reference                 vm
     00024DE8  _vm_reserve                        vm
     00024E16  _vm_set                            vm
     00024E77  _vm_set_const                      vm
     00024EA3  _vm_get_tlocal                     vm
     00024F30  _vm_test_terminate                 vm
     00024F3B  _vm_idle                           vm
     00024F47  _vm_init_rng                       vm
     00024F73  _vm_rand                           vm
     00024FB5  _vm_lock                           vm
     00024FC4  _vm_unlock                         vm
     00024FD7  _vm_raise                          vm
     00025019  _vm_set_indirect                   vm
     00025094  _vm_get_indirect                   vm
     0002510F  _vm_poll_loaded                    vm
     0002513F  _vm_memset                         vm
ASxxxx Linker V03.00/V05.40 + sdld,  page 78.
Hexadecimal  [32-Bits]

Area                                    Addr        Size        Decimal Bytes (Attributes)
--------------------------------        ----        ----        ------- ----- ------------
_CODE_2                             00024000    00003FFC =       16380. bytes (REL,CON)

      Value  Global                              Global Defined In Module
      -----  --------------------------------   ------------------------
     00025179  _vm_memcpy                         vm
     000251F6  _script_runner_init                vm
     000252AD  _script_execute                    vm
     00025413  _script_terminate                  vm
     00025478  _script_detach_hthread             vm
     000254B4  ___func_font_gbs_mono              font_gbs_mono
     00026264  _font_gbs_mono                     font_gbs_mono
     000274FB  _song_rulz_lightmood_0_Data        song_rulz_lightmood_0_Data
     00027FE7  _song_tronimal_drumsexample_Data   song_tronimal_drumsexample_D

ASxxxx Linker V03.00/V05.40 + sdld,  page 79.
Hexadecimal  [32-Bits]

Area                                    Addr        Size        Decimal Bytes (Attributes)
--------------------------------        ----        ----        ------- ----- ------------
_CODE_6                             00064000    00003FFF =       16383. bytes (REL,CON)

      Value  Global                              Global Defined In Module
      -----  --------------------------------   ------------------------
     00064000  _music_init_driver                 music_manager
     0006405C  _music_init_events                 music_manager
     00064098  _music_events_poll                 music_manager
     000640C0  _music_pause                       music_manager
     000640E2  ___func_VM_MATH                    vm_math
     000640E2  _vm_sin_scale                      vm_math
     0006417E  _vm_cos_scale                      vm_math
     0006421C  ___func_VM_MUSIC                   vm_music
     0006421C  _vm_music_play                     vm_music
     00064269  _vm_music_stop                     vm_music
     0006428B  _vm_music_mute                     vm_music
     000642C9  _vm_music_routine                  vm_music
     000642F0  _vm_music_setpos                   vm_music
     000642F6  _vm_sound_mastervol                vm_music
     000642FC  _vm_sfx_play                       vm_music
     0006436F  ___func_VM_PALETTE                 vm_palette
     0006436F  _vm_load_palette                   vm_palette
     000644C3  ___func_VM_PROJECTILE              vm_projectiles
     000644C3  _vm_projectile_launch              vm_projectiles
     00064504  _vm_projectile_load_type           vm_projectiles
     00064596  _itoa_fmt                          vm_ui_a
     000645CA  .utoa_fmt                          vm_ui_a
     00064674  _actor_0_update                    actor_0_update
     00064676  GBVM$actor_0_update$adfd7dc9_8c6   actor_0_update
     000646C9  GBVM$actor_0_update$4e12102c_249   actor_0_update
     00064721  _actor_1_update                    actor_1_update
     00064723  GBVM$actor_1_update$d487001c_b98   actor_1_update
     00064776  GBVM$actor_1_update$e06114be_4ab   actor_1_update
     000647CE  _actor_10_update                   actor_10_update
     000647D0  GBVM$actor_10_update$adad23f2_07   actor_10_update
     00064823  GBVM$actor_10_update$b9afe412_a0   actor_10_update
     0006487B  _actor_11_update                   actor_11_update
     0006487D  GBVM$actor_11_update$da482fad_50   actor_11_update
     00064892  GBVM$actor_11_update$4e471df3_29   actor_11_update
     000648A4  GBVM$actor_11_update$65734341_bf   actor_11_update
     000648F7  GBVM$actor_11_update$56d975a4_22   actor_11_update
     00064913  GBVM$actor_11_update$2b8f5ab1_ae   actor_11_update
     00064928  GBVM$actor_11_update$28a23cd0_93   actor_11_update
     0006492D  GBVM$actor_11_update$2b876f53_94   actor_11_update
     0006492F  GBVM$actor_11_update$1ae72c09_41   actor_11_update
     0006492F  GBVM_END$actor_11_update$2b8f5ab   actor_11_update
     00064944  GBVM$actor_11_update$d7195281_83   actor_11_update
     0006498A  GBVM$actor_11_update$f2a70162_8d   actor_11_update
     000649A6  GBVM$actor_11_update$223013da_2b   actor_11_update
     000649BB  GBVM$actor_11_update$41541255_ca   actor_11_update
     000649D1  GBVM_END$actor_11_update$1ae72c0   actor_11_update
     000649D1  GBVM_END$actor_11_update$223013d   actor_11_update
     000649D4  GBVM_END$actor_11_update$4e471df   actor_11_update
     000649D4  GBVM_END$actor_11_update$da482fa   actor_11_update
     000649D9  _actor_12_update                   actor_12_update
ASxxxx Linker V03.00/V05.40 + sdld,  page 80.
Hexadecimal  [32-Bits]

Area                                    Addr        Size        Decimal Bytes (Attributes)
--------------------------------        ----        ----        ------- ----- ------------
_CODE_6                             00064000    00003FFF =       16383. bytes (REL,CON)

      Value  Global                              Global Defined In Module
      -----  --------------------------------   ------------------------
     000649DB  GBVM$actor_12_update$2fb8903a_df   actor_12_update
     00064A2E  GBVM$actor_12_update$7e20f872_ae   actor_12_update
     00064A86  _actor_13_update                   actor_13_update
     00064A88  GBVM$actor_13_update$57a69abf_a4   actor_13_update
     00064ADB  GBVM$actor_13_update$420ae983_31   actor_13_update
     00064B33  _actor_14_update                   actor_14_update
     00064B35  GBVM$actor_14_update$626276b5_59   actor_14_update
     00064B88  GBVM$actor_14_update$d9f610fd_20   actor_14_update
     00064BE0  _actor_15_update                   actor_15_update
     00064BE2  GBVM$actor_15_update$dc3cc4e8_79   actor_15_update
     00064C35  GBVM$actor_15_update$bbb545dc_5e   actor_15_update
     00064C8D  _actor_16_update                   actor_16_update
     00064C8F  GBVM$actor_16_update$71baee04_86   actor_16_update
     00064CE2  GBVM$actor_16_update$b2eda38c_57   actor_16_update
     00064D3A  _actor_17_update                   actor_17_update
     00064D3C  GBVM$actor_17_update$e9436843_3e   actor_17_update
     00064D8F  GBVM$actor_17_update$76bd186f_35   actor_17_update
     00064DE2  GBVM$actor_17_update$6b5227cd_81   actor_17_update
     00064E35  GBVM$actor_17_update$1b954d9c_82   actor_17_update
     00064E8D  _actor_18_update                   actor_18_update
     00064E8F  GBVM$actor_18_update$463f18b0_f7   actor_18_update
     00064EE2  GBVM$actor_18_update$96f5fede_58   actor_18_update
     00064F35  GBVM$actor_18_update$3384c6c3_0f   actor_18_update
     00064F88  GBVM$actor_18_update$b68d1452_ac   actor_18_update
     00064FE0  _actor_19_update                   actor_19_update
     00064FE2  GBVM$actor_19_update$57f4705c_3f   actor_19_update
     00064FF7  GBVM$actor_19_update$17ee11d5_1b   actor_19_update
     0006504A  GBVM$actor_19_update$1b4b282a_20   actor_19_update
     0006505F  GBVM$actor_19_update$61652a16_d5   actor_19_update
     000650A5  GBVM_END$actor_19_update$1b4b282   actor_19_update
     000650A5  GBVM_END$actor_19_update$57f4705   actor_19_update
     000650AA  _actor_2_update                    actor_2_update
     000650AC  GBVM$actor_2_update$d48fcbb0_f51   actor_2_update
     000650FF  GBVM$actor_2_update$17f487d3_de6   actor_2_update
     00065152  GBVM$actor_2_update$784587b2_3a0   actor_2_update
     000651A5  GBVM$actor_2_update$15fcc24c_d9f   actor_2_update
     000651FD  _actor_20_update                   actor_20_update
     000651FF  GBVM$actor_20_update$0fb36d1f_7f   actor_20_update
     00065252  GBVM$actor_20_update$83a3404c_80   actor_20_update
     000652AA  _actor_21_update                   actor_21_update
     000652AC  GBVM$actor_21_update$b55c080b_d0   actor_21_update
     000652FF  GBVM$actor_21_update$4d5c9123_34   actor_21_update
     00065357  _actor_22_update                   actor_22_update
     00065359  GBVM$actor_22_update$801a7082_fa   actor_22_update
     000653AC  GBVM$actor_22_update$21c60700_ca   actor_22_update
     00065404  _actor_23_update                   actor_23_update
     00065406  GBVM$actor_23_update$9c93bd66_46   actor_23_update
     00065459  GBVM$actor_23_update$554cdb8d_39   actor_23_update
     000654B1  _actor_24_update                   actor_24_update
     000654B3  GBVM$actor_24_update$0008405e_1a   actor_24_update
     00065506  GBVM$actor_24_update$c996d828_80   actor_24_update
ASxxxx Linker V03.00/V05.40 + sdld,  page 81.
Hexadecimal  [32-Bits]

Area                                    Addr        Size        Decimal Bytes (Attributes)
--------------------------------        ----        ----        ------- ----- ------------
_CODE_6                             00064000    00003FFF =       16383. bytes (REL,CON)

      Value  Global                              Global Defined In Module
      -----  --------------------------------   ------------------------
     0006555E  _actor_25_update                   actor_25_update
     00065560  GBVM$actor_25_update$10ccba55_3b   actor_25_update
     000655B3  GBVM$actor_25_update$01c557aa_aa   actor_25_update
     0006560B  _actor_26_update                   actor_26_update
     0006560D  GBVM$actor_26_update$49a47c4a_cc   actor_26_update
     00065660  GBVM$actor_26_update$a6d90e8f_9e   actor_26_update
     000656B8  _actor_27_update                   actor_27_update
     000656BA  GBVM$actor_27_update$3cb567fc_2d   actor_27_update
     0006570D  GBVM$actor_27_update$83d24658_d6   actor_27_update
     00065765  _actor_28_update                   actor_28_update
     00065767  GBVM$actor_28_update$8ef80051_b1   actor_28_update
     000657BA  GBVM$actor_28_update$8b4f4c54_5a   actor_28_update
     00065812  _actor_29_update                   actor_29_update
     00065814  GBVM$actor_29_update$d10661e6_b3   actor_29_update
     00065867  GBVM$actor_29_update$036da27f_2d   actor_29_update
     000658BF  _actor_3_update                    actor_3_update
     000658C1  GBVM$actor_3_update$15759094_098   actor_3_update
     00065914  GBVM$actor_3_update$d004e40e_af5   actor_3_update
     0006596C  _actor_30_update                   actor_30_update
     0006596E  GBVM$actor_30_update$6a77e98f_6f   actor_30_update
     00065983  GBVM$actor_30_update$e29fc436_ec   actor_30_update
     00065995  GBVM$actor_30_update$6044d29a_bd   actor_30_update
     000659E8  GBVM$actor_30_update$86a84e74_41   actor_30_update
     00065A04  GBVM$actor_30_update$18c0c517_b6   actor_30_update
     00065A19  GBVM$actor_30_update$1542066a_9c   actor_30_update
     00065A1E  GBVM$actor_30_update$a2e4ebbe_75   actor_30_update
     00065A20  GBVM$actor_30_update$d859d6fa_2d   actor_30_update
     00065A20  GBVM_END$actor_30_update$18c0c51   actor_30_update
     00065A35  GBVM$actor_30_update$92ad7246_e8   actor_30_update
     00065A7B  GBVM$actor_30_update$3ae1d2f8_39   actor_30_update
     00065A97  GBVM$actor_30_update$c8b17bde_18   actor_30_update
     00065AAC  GBVM$actor_30_update$76ed043b_ba   actor_30_update
     00065AC2  GBVM_END$actor_30_update$c8b17bd   actor_30_update
     00065AC2  GBVM_END$actor_30_update$d859d6f   actor_30_update
     00065AC5  GBVM_END$actor_30_update$6a77e98   actor_30_update
     00065AC5  GBVM_END$actor_30_update$e29fc43   actor_30_update
     00065ACA  _actor_31_update                   actor_31_update
     00065ACC  GBVM$actor_31_update$aef6da77_13   actor_31_update
     00065B1F  GBVM$actor_31_update$b55bfd48_90   actor_31_update
     00065B77  _actor_32_update                   actor_32_update
     00065B79  GBVM$actor_32_update$3c2e0cb1_c0   actor_32_update
     00065BCC  GBVM$actor_32_update$1decf64b_03   actor_32_update
     00065C24  _actor_34_update                   actor_34_update
     00065C26  GBVM$actor_34_update$cfe83dc2_04   actor_34_update
     00065C79  GBVM$actor_34_update$013a1ab0_52   actor_34_update
     00065CCC  GBVM$actor_34_update$3efe90bc_c0   actor_34_update
     00065D1F  GBVM$actor_34_update$99c313ce_fa   actor_34_update
     00065D77  _actor_35_update                   actor_35_update
     00065D79  GBVM$actor_35_update$f2e912bb_09   actor_35_update
     00065DCC  GBVM$actor_35_update$a1fc84fb_67   actor_35_update
     00065E1F  GBVM$actor_35_update$48860390_27   actor_35_update
ASxxxx Linker V03.00/V05.40 + sdld,  page 82.
Hexadecimal  [32-Bits]

Area                                    Addr        Size        Decimal Bytes (Attributes)
--------------------------------        ----        ----        ------- ----- ------------
_CODE_6                             00064000    00003FFF =       16383. bytes (REL,CON)

      Value  Global                              Global Defined In Module
      -----  --------------------------------   ------------------------
     00065E72  GBVM$actor_35_update$5e69818d_23   actor_35_update
     00065ECA  _actor_36_update                   actor_36_update
     00065ECC  GBVM$actor_36_update$78017b7d_ae   actor_36_update
     00065EE1  GBVM$actor_36_update$fa18d8fc_e8   actor_36_update
     00065F34  GBVM$actor_36_update$9dbbbade_32   actor_36_update
     00065F49  GBVM$actor_36_update$c7899d75_96   actor_36_update
     00065F8F  GBVM_END$actor_36_update$78017b7   actor_36_update
     00065F8F  GBVM_END$actor_36_update$9dbbbad   actor_36_update
     00065F94  _actor_47_update                   actor_47_update
     00065F96  GBVM$actor_47_update$9c4dc02f_66   actor_47_update
     00065FAB  GBVM$actor_47_update$a02dcb12_1b   actor_47_update
     00065FBD  GBVM$actor_47_update$124c9df6_e1   actor_47_update
     00066010  GBVM$actor_47_update$7cf2845b_28   actor_47_update
     0006602C  GBVM$actor_47_update$3647e2ff_32   actor_47_update
     00066041  GBVM$actor_47_update$5fa1519e_ec   actor_47_update
     00066046  GBVM$actor_47_update$9a3db0d1_d5   actor_47_update
     00066048  GBVM$actor_47_update$4584b984_92   actor_47_update
     00066048  GBVM_END$actor_47_update$3647e2f   actor_47_update
     0006605D  GBVM$actor_47_update$282127c7_f7   actor_47_update
     000660A3  GBVM$actor_47_update$f2c45b39_09   actor_47_update
     000660BF  GBVM$actor_47_update$64448c59_63   actor_47_update
     000660D4  GBVM$actor_47_update$d460e6ec_f6   actor_47_update
     000660EA  GBVM_END$actor_47_update$4584b98   actor_47_update
     000660EA  GBVM_END$actor_47_update$64448c5   actor_47_update
     000660ED  GBVM_END$actor_47_update$9c4dc02   actor_47_update
     000660ED  GBVM_END$actor_47_update$a02dcb1   actor_47_update
     000660F2  _actor_5_update                    actor_5_update
     000660F4  GBVM$actor_5_update$f660bde3_1b6   actor_5_update
     00066109  GBVM$actor_5_update$572ad758_8ca   actor_5_update
     0006611B  GBVM$actor_5_update$598a0842_1c2   actor_5_update
     0006616E  GBVM$actor_5_update$d659a098_8ea   actor_5_update
     0006618A  GBVM$actor_5_update$a199dcc7_abe   actor_5_update
     0006619F  GBVM$actor_5_update$3ec4b439_9af   actor_5_update
     000661A4  GBVM$actor_5_update$48b4a963_550   actor_5_update
     000661A6  GBVM$actor_5_update$ea4c14b5_b39   actor_5_update
     000661A6  GBVM_END$actor_5_update$a199dcc7   actor_5_update
     000661BB  GBVM$actor_5_update$abb0922b_1c8   actor_5_update
     00066201  GBVM$actor_5_update$01198a1f_597   actor_5_update
     0006621D  GBVM$actor_5_update$55991481_495   actor_5_update
     00066232  GBVM$actor_5_update$157979a4_4de   actor_5_update
     00066248  GBVM_END$actor_5_update$55991481   actor_5_update
     00066248  GBVM_END$actor_5_update$ea4c14b5   actor_5_update
     0006624B  GBVM_END$actor_5_update$572ad758   actor_5_update
     0006624B  GBVM_END$actor_5_update$f660bde3   actor_5_update
     00066250  _actor_50_update                   actor_50_update
     00066252  GBVM$actor_50_update$25ebcdf3_6d   actor_50_update
     000662A5  GBVM$actor_50_update$52c92e2b_b5   actor_50_update
     000662F8  GBVM$actor_50_update$b0a1ddb1_0c   actor_50_update
     0006634B  GBVM$actor_50_update$4eac8808_39   actor_50_update
     000663A3  _actor_53_update                   actor_53_update
     000663A5  GBVM$actor_53_update$a81e3994_91   actor_53_update
ASxxxx Linker V03.00/V05.40 + sdld,  page 83.
Hexadecimal  [32-Bits]

Area                                    Addr        Size        Decimal Bytes (Attributes)
--------------------------------        ----        ----        ------- ----- ------------
_CODE_6                             00064000    00003FFF =       16383. bytes (REL,CON)

      Value  Global                              Global Defined In Module
      -----  --------------------------------   ------------------------
     000663BA  GBVM$actor_53_update$1af4b688_20   actor_53_update
     000663CC  GBVM$actor_53_update$59383afb_18   actor_53_update
     0006641F  GBVM$actor_53_update$2efe4648_73   actor_53_update
     0006643B  GBVM$actor_53_update$4480157a_c1   actor_53_update
     00066450  GBVM$actor_53_update$2ee7b4f3_d6   actor_53_update
     00066455  GBVM$actor_53_update$349e1c34_da   actor_53_update
     00066457  GBVM$actor_53_update$7d4abcd8_d9   actor_53_update
     00066457  GBVM_END$actor_53_update$4480157   actor_53_update
     0006646C  GBVM$actor_53_update$2360a08f_b1   actor_53_update
     000664B2  GBVM$actor_53_update$d7367da9_d0   actor_53_update
     000664CE  GBVM$actor_53_update$e163d3fa_16   actor_53_update
     000664E3  GBVM$actor_53_update$0306a7b1_fa   actor_53_update
     000664F9  GBVM_END$actor_53_update$7d4abcd   actor_53_update
     000664F9  GBVM_END$actor_53_update$e163d3f   actor_53_update
     000664FC  GBVM_END$actor_53_update$1af4b68   actor_53_update
     000664FC  GBVM_END$actor_53_update$a81e399   actor_53_update
     00066501  _actor_58_update                   actor_58_update
     00066503  GBVM$actor_58_update$97d4427f_d4   actor_58_update
     00066556  GBVM$actor_58_update$aa06fbc7_c8   actor_58_update
     000665A9  GBVM$actor_58_update$a59d8639_5b   actor_58_update
     000665FC  GBVM$actor_58_update$0fd9b723_74   actor_58_update
     00066654  _actor_59_update                   actor_59_update
     00066656  GBVM$actor_59_update$e92b9ea3_a8   actor_59_update
     000666A9  GBVM$actor_59_update$597efb30_c0   actor_59_update
     000666FC  GBVM$actor_59_update$8adb19a6_fc   actor_59_update
     0006674F  GBVM$actor_59_update$3e300cad_ca   actor_59_update
     000667A7  _actor_60_update                   actor_60_update
     000667A9  GBVM$actor_60_update$d7e83e9d_a2   actor_60_update
     000667BE  GBVM$actor_60_update$de78f94a_2e   actor_60_update
     00066811  GBVM$actor_60_update$ccd1189f_5e   actor_60_update
     00066826  GBVM$actor_60_update$01c8b4a4_b3   actor_60_update
     0006686C  GBVM_END$actor_60_update$ccd1189   actor_60_update
     0006686C  GBVM_END$actor_60_update$d7e83e9   actor_60_update
     00066871  _actor_71_update                   actor_71_update
     00066873  GBVM$actor_71_update$fae19e6f_67   actor_71_update
     00066888  GBVM$actor_71_update$f2268ae7_00   actor_71_update
     0006689A  GBVM$actor_71_update$93dafd6c_26   actor_71_update
     000668ED  GBVM$actor_71_update$66fa169c_10   actor_71_update
     00066909  GBVM$actor_71_update$2dbd27e3_6e   actor_71_update
     0006691E  GBVM$actor_71_update$9c7ddd2f_e3   actor_71_update
     00066923  GBVM$actor_71_update$d78bb889_f0   actor_71_update
     00066925  GBVM$actor_71_update$32c441be_f6   actor_71_update
     00066925  GBVM_END$actor_71_update$2dbd27e   actor_71_update
     0006693A  GBVM$actor_71_update$670a7f77_ce   actor_71_update
     00066980  GBVM$actor_71_update$bf8e5620_4c   actor_71_update
     0006699C  GBVM$actor_71_update$b3dc5c73_bf   actor_71_update
     000669B1  GBVM$actor_71_update$4fbb7ec4_47   actor_71_update
     000669C7  GBVM_END$actor_71_update$32c441b   actor_71_update
     000669C7  GBVM_END$actor_71_update$b3dc5c7   actor_71_update
     000669CA  GBVM_END$actor_71_update$f2268ae   actor_71_update
     000669CA  GBVM_END$actor_71_update$fae19e6   actor_71_update
ASxxxx Linker V03.00/V05.40 + sdld,  page 84.
Hexadecimal  [32-Bits]

Area                                    Addr        Size        Decimal Bytes (Attributes)
--------------------------------        ----        ----        ------- ----- ------------
_CODE_6                             00064000    00003FFF =       16383. bytes (REL,CON)

      Value  Global                              Global Defined In Module
      -----  --------------------------------   ------------------------
     000669CF  _actor_8_update                    actor_8_update
     000669D1  GBVM$actor_8_update$5647a171_c75   actor_8_update
     00066A24  GBVM$actor_8_update$9e672284_bdf   actor_8_update
     00066A77  GBVM$actor_8_update$6ce6df44_e1b   actor_8_update
     00066ACA  GBVM$actor_8_update$a1bae961_a16   actor_8_update
     00066B22  _scene_0_init                      scene_0_init
     00066B25  GBVM$scene_0_init$d8aafb3b_0c13_   scene_0_init
     00066B29  GBVM$scene_0_init$9b50852d_c0a1_   scene_0_init
     00066B31  GBVM$scene_0_init$autofade$002e9   scene_0_init
     00066B3C  GBVM$scene_0_init$caac285a_7960_   scene_0_init
     00066B8E  GBVM$scene_0_init$65c011fa_5241_   scene_0_init
     00066BA3  GBVM$scene_0_init$45cb886a_4ff8_   scene_0_init
     00066BD5  GBVM$scene_0_init$cb9928f2_8350_   scene_0_init
     00066BD5  GBVM_END$scene_0_init$65c011fa_5   scene_0_init
     00066BEA  GBVM$scene_0_init$c47a2def_134e_   scene_0_init
     00066C1C  GBVM$scene_0_init$0c3e7c79_63a8_   scene_0_init
     00066C1C  GBVM_END$scene_0_init$cb9928f2_8   scene_0_init
     00066C31  GBVM$scene_0_init$b3616e47_cf1e_   scene_0_init
     00066C63  GBVM_END$scene_0_init$0c3e7c79_6   scene_0_init
     00066C64  ___func_scene_1_actors             scene_1_actors
     00066C64  _scene_1_actors                    scene_1_actors
     00066D9C  _scene_10_init                     scene_10_init
     00066D9D  GBVM$scene_10_init$76eae16b_b15c   scene_10_init
     00066DA1  GBVM$scene_10_init$autofade$4c8a   scene_10_init
     00066DAD  ___func_scene_12_actors            scene_12_actors
     00066DAD  _scene_12_actors                   scene_12_actors
     00066EE5  _scene_15_init                     scene_15_init
     00066EE8  GBVM$scene_15_init$9ded16b3_0972   scene_15_init
     00066EEC  GBVM$scene_15_init$9f06800e_c12d   scene_15_init
     00066EF4  GBVM$scene_15_init$autofade$561f   scene_15_init
     00066EFF  GBVM$scene_15_init$50553074_3c9f   scene_15_init
     00066F51  GBVM$scene_15_init$88fcb249_4a78   scene_15_init
     00066F66  GBVM$scene_15_init$a4da3662_bfc9   scene_15_init
     00066F98  GBVM$scene_15_init$e11682f0_23d0   scene_15_init
     00066F98  GBVM_END$scene_15_init$88fcb249_   scene_15_init
     00066FAD  GBVM$scene_15_init$addee186_e255   scene_15_init
     00066FDF  GBVM$scene_15_init$b376b36f_a234   scene_15_init
     00066FDF  GBVM_END$scene_15_init$e11682f0_   scene_15_init
     00066FF4  GBVM$scene_15_init$786c807d_dff4   scene_15_init
     00067026  GBVM_END$scene_15_init$b376b36f_   scene_15_init
     00067027  _scene_16_init                     scene_16_init
     0006702A  GBVM$scene_16_init$80a58de3_78a4   scene_16_init
     0006702E  GBVM$scene_16_init$825d26ba_dfcd   scene_16_init
     00067036  GBVM$scene_16_init$autofade$b845   scene_16_init
     00067041  GBVM$scene_16_init$70b9f626_d49d   scene_16_init
     00067093  GBVM$scene_16_init$05369d37_f5bf   scene_16_init
     000670A8  GBVM$scene_16_init$ac20c12a_7cea   scene_16_init
     000670DA  GBVM$scene_16_init$6d2fa9c4_766c   scene_16_init
     000670DA  GBVM_END$scene_16_init$05369d37_   scene_16_init
     000670EF  GBVM$scene_16_init$34b9bacf_bec0   scene_16_init
     00067121  GBVM$scene_16_init$ace767fd_0e03   scene_16_init
ASxxxx Linker V03.00/V05.40 + sdld,  page 85.
Hexadecimal  [32-Bits]

Area                                    Addr        Size        Decimal Bytes (Attributes)
--------------------------------        ----        ----        ------- ----- ------------
_CODE_6                             00064000    00003FFF =       16383. bytes (REL,CON)

      Value  Global                              Global Defined In Module
      -----  --------------------------------   ------------------------
     00067121  GBVM_END$scene_16_init$6d2fa9c4_   scene_16_init
     00067136  GBVM$scene_16_init$c3d95930_1acf   scene_16_init
     00067168  GBVM_END$scene_16_init$ace767fd_   scene_16_init
     00067169  _scene_17_init                     scene_17_init
     0006716C  GBVM$scene_17_init$25f3b310_19b1   scene_17_init
     00067170  GBVM$scene_17_init$f3b68325_a502   scene_17_init
     00067178  GBVM$scene_17_init$autofade$aa72   scene_17_init
     00067183  GBVM$scene_17_init$c8b6e659_0afc   scene_17_init
     000671D5  GBVM$scene_17_init$42c6bcec_36c5   scene_17_init
     000671EA  GBVM$scene_17_init$4688e0a2_8697   scene_17_init
     0006721C  GBVM$scene_17_init$c6fcaa0c_2d5b   scene_17_init
     0006721C  GBVM_END$scene_17_init$42c6bcec_   scene_17_init
     00067231  GBVM$scene_17_init$d9e6092d_512d   scene_17_init
     00067263  GBVM$scene_17_init$8ac3a83f_13ce   scene_17_init
     00067263  GBVM_END$scene_17_init$c6fcaa0c_   scene_17_init
     00067278  GBVM$scene_17_init$8a7a8d7f_ba26   scene_17_init
     000672AA  GBVM_END$scene_17_init$8ac3a83f_   scene_17_init
     000672AB  ___func_scene_18_collisions        scene_18_collisions
     000672AB  _scene_18_collisions               scene_18_collisions
     00067413  _scene_18_init                     scene_18_init
     00067416  GBVM$scene_18_init$dd675c3b_9dad   scene_18_init
     0006741A  GBVM$scene_18_init$93c9c777_04f5   scene_18_init
     00067422  GBVM$scene_18_init$autofade$76ed   scene_18_init
     0006742D  GBVM$scene_18_init$c62bbad3_3c65   scene_18_init
     0006747F  GBVM$scene_18_init$5320d6b6_f171   scene_18_init
     00067494  GBVM$scene_18_init$65a3c14a_da9e   scene_18_init
     000674C6  GBVM$scene_18_init$600e8cc2_7a5a   scene_18_init
     000674C6  GBVM_END$scene_18_init$5320d6b6_   scene_18_init
     000674DB  GBVM$scene_18_init$f1985f98_1415   scene_18_init
     0006750D  GBVM$scene_18_init$c12513ed_4e3d   scene_18_init
     0006750D  GBVM_END$scene_18_init$600e8cc2_   scene_18_init
     00067522  GBVM$scene_18_init$5b9cd676_4dcb   scene_18_init
     00067554  GBVM_END$scene_18_init$c12513ed_   scene_18_init
     00067555  ___func_scene_2_collisions         scene_2_collisions
     00067555  _scene_2_collisions                scene_2_collisions
     000676BD  _scene_2_init                      scene_2_init
     000676C0  GBVM$scene_2_init$d53d2284_f036_   scene_2_init
     000676C4  GBVM$scene_2_init$1daad112_3077_   scene_2_init
     000676CC  GBVM$scene_2_init$autofade$9d920   scene_2_init
     000676D7  GBVM$scene_2_init$c8b94a89_becb_   scene_2_init
     00067729  GBVM$scene_2_init$8a5a995a_df8b_   scene_2_init
     0006773E  GBVM$scene_2_init$7734565a_66db_   scene_2_init
     00067770  GBVM$scene_2_init$540ada0c_c42e_   scene_2_init
     00067770  GBVM_END$scene_2_init$8a5a995a_d   scene_2_init
     00067785  GBVM$scene_2_init$a510a09b_4e7a_   scene_2_init
     000677B7  GBVM$scene_2_init$d6999a0d_7d07_   scene_2_init
     000677B7  GBVM_END$scene_2_init$540ada0c_c   scene_2_init
     000677CC  GBVM$scene_2_init$ab13dc7d_9d92_   scene_2_init
     000677FE  GBVM_END$scene_2_init$d6999a0d_7   scene_2_init
     000677FF  ___func_scene_4_collisions         scene_4_collisions
     000677FF  _scene_4_collisions                scene_4_collisions
ASxxxx Linker V03.00/V05.40 + sdld,  page 86.
Hexadecimal  [32-Bits]

Area                                    Addr        Size        Decimal Bytes (Attributes)
--------------------------------        ----        ----        ------- ----- ------------
_CODE_6                             00064000    00003FFF =       16383. bytes (REL,CON)

      Value  Global                              Global Defined In Module
      -----  --------------------------------   ------------------------
     00067967  _scene_4_init                      scene_4_init
     0006796A  GBVM$scene_4_init$4db051a3_1fcd_   scene_4_init
     0006796E  GBVM$scene_4_init$8f9921a9_d37f_   scene_4_init
     00067976  GBVM$scene_4_init$15f24482_5ad8_   scene_4_init
     00067992  GBVM$scene_4_init$autofade$92ebc   scene_4_init
     0006799D  GBVM$scene_4_init$ef9c0053_66ea_   scene_4_init
     000679CD  GBVM$scene_4_init$f2587ee6_76ae_   scene_4_init
     00067A0A  GBVM$scene_4_init$7a7b301e_08fd_   scene_4_init
     00067A1B  GBVM$scene_4_init$6bd52192_fc53_   scene_4_init
     00067A4D  GBVM_END$scene_4_init$7a7b301e_0   scene_4_init
     00067A4E  ___func_scene_5_collisions         scene_5_collisions
     00067A4E  _scene_5_collisions                scene_5_collisions
     00067BB6  ___func_scene_8_collisions         scene_8_collisions
     00067BB6  _scene_8_collisions                scene_8_collisions
     00067D1E  ___func_scene_9_actors             scene_9_actors
     00067D1E  _scene_9_actors                    scene_9_actors
     00067E56  ___func_sprite_actor_animated_ti   sprite_actor_animated_tilese
     00067E56  _sprite_actor_animated_tileset     sprite_actor_animated_tilese
     00067F98  ___func_sprite_log_copy            sprite_log_copy
     00067F98  _sprite_log_copy_metasprite_0      sprite_log_copy
     00067F9C  _sprite_log_copy_metasprite_1      sprite_log_copy
     00067FB8  _sprite_log_copy_metasprite_2      sprite_log_copy
     00067FD4  _sprite_log_copy_metasprites       sprite_log_copy
     00067FDA  _sprite_log_copy_animations        sprite_log_copy
     00067FEA  _sprite_log_copy_animations_look   sprite_log_copy
     00067FEC  _sprite_log_copy                   sprite_log_copy

ASxxxx Linker V03.00/V05.40 + sdld,  page 87.
Hexadecimal  [32-Bits]

Area                                    Addr        Size        Decimal Bytes (Attributes)
--------------------------------        ----        ----        ------- ----- ------------
_HEADER_LCD0                        00000000    00000003 =           3. bytes (ABS,CON)

      Value  Global                              Global Defined In Module
      -----  --------------------------------   ------------------------
ASxxxx Linker V03.00/V05.40 + sdld,  page 88.

Files Linked                              [ module(s) ]

C:\Users\lvbor\AppData\Local\Temp/_gbstools/gbdk/lib/gb/crt0.o
                                          [ Runtime ]
C:/Users/lvbor/AppData/Local/Temp/_gbsbuild/obj/absolute.rel
                                          [ absolute ]
C:/Users/lvbor/AppData/Local/Temp/_gbsbuild/obj/actor.rel
                                          [ actor ]
C:/Users/lvbor/AppData/Local/Temp/_gbsbuild/obj/bankdata.rel
                                          [ bankdata ]
C:/Users/lvbor/AppData/Local/Temp/_gbsbuild/obj/bootstrap.rel
                                          [  ]
C:/Users/lvbor/AppData/Local/Temp/_gbsbuild/obj/camera.rel
                                          [ camera ]
C:/Users/lvbor/AppData/Local/Temp/_gbsbuild/obj/core.rel
                                          [ core ]
C:/Users/lvbor/AppData/Local/Temp/_gbsbuild/obj/crash_handler.rel
                                          [  ]
C:/Users/lvbor/AppData/Local/Temp/_gbsbuild/obj/data_manager.rel
                                          [ data_manager ]
C:/Users/lvbor/AppData/Local/Temp/_gbsbuild/obj/events.rel
                                          [ events ]
C:/Users/lvbor/AppData/Local/Temp/_gbsbuild/obj/fade_manager.rel
                                          [ fade_manager ]
C:/Users/lvbor/AppData/Local/Temp/_gbsbuild/obj/flasher_s.rel
                                          [  ]
C:/Users/lvbor/AppData/Local/Temp/_gbsbuild/obj/flasher.rel
                                          [ flasher ]
C:/Users/lvbor/AppData/Local/Temp/_gbsbuild/obj/game_time.rel
                                          [ game_time ]
C:/Users/lvbor/AppData/Local/Temp/_gbsbuild/obj/gbprinter.rel
                                          [ gbprinter ]
C:/Users/lvbor/AppData/Local/Temp/_gbsbuild/obj/input.rel
                                          [ input ]
C:/Users/lvbor/AppData/Local/Temp/_gbsbuild/obj/interrupt_sio.rel
                                          [  ]
C:/Users/lvbor/AppData/Local/Temp/_gbsbuild/obj/interrupt_timer.rel
                                          [  ]
C:/Users/lvbor/AppData/Local/Temp/_gbsbuild/obj/interrupts.rel
                                          [ interrupts ]
C:/Users/lvbor/AppData/Local/Temp/_gbsbuild/obj/load_save.rel
                                          [ load_save ]
C:/Users/lvbor/AppData/Local/Temp/_gbsbuild/obj/math_atan2.rel
                                          [ math_atan2 ]
C:/Users/lvbor/AppData/Local/Temp/_gbsbuild/obj/math.rel
                                          [ math ]
C:/Users/lvbor/AppData/Local/Temp/_gbsbuild/obj/music_manager.rel
                                          [ music_manager ]
C:/Users/lvbor/AppData/Local/Temp/_gbsbuild/obj/palette.rel
                                          [ palette ]
C:/Users/lvbor/AppData/Local/Temp/_gbsbuild/obj/parallax.rel
                                          [ parallax ]
C:/Users/lvbor/AppData/Local/Temp/_gbsbuild/obj/projectiles.rel
                                          [ projectiles ]
C:/Users/lvbor/AppData/Local/Temp/_gbsbuild/obj/scroll_a.rel
                                          [  ]
C:/Users/lvbor/AppData/Local/Temp/_gbsbuild/obj/scroll.rel
                                          [ scroll ]
C:/Users/lvbor/AppData/Local/Temp/_gbsbuild/obj/set_tile_submap.rel
                                          [  ]
C:/Users/lvbor/AppData/Local/Temp/_gbsbuild/obj/sfx_player.rel
                                          [ sfx_player ]
C:/Users/lvbor/AppData/Local/Temp/_gbsbuild/obj/sgb_border.rel
                                          [ sgb_border ]
C:/Users/lvbor/AppData/Local/Temp/_gbsbuild/obj/sio.rel
                                          [ sio ]
C:/Users/lvbor/AppData/Local/Temp/_gbsbuild/obj/states_caller.rel
                                          [  ]
C:/Users/lvbor/AppData/Local/Temp/_gbsbuild/obj/system.rel
                                          [ system ]
C:/Users/lvbor/AppData/Local/Temp/_gbsbuild/obj/trigger.rel
                                          [ trigger ]
C:/Users/lvbor/AppData/Local/Temp/_gbsbuild/obj/ui_a.rel
                                          [  ]
C:/Users/lvbor/AppData/Local/Temp/_gbsbuild/obj/ui.rel
                                          [ ui ]
C:/Users/lvbor/AppData/Local/Temp/_gbsbuild/obj/vm_actor.rel
                                          [ vm_actor ]
C:/Users/lvbor/AppData/Local/Temp/_gbsbuild/obj/vm_camera.rel
                                          [ vm_camera ]
C:/Users/lvbor/AppData/Local/Temp/_gbsbuild/obj/vm_gameboy.rel
                                          [ vm_gameboy ]
C:/Users/lvbor/AppData/Local/Temp/_gbsbuild/obj/vm_gbprinter.rel
                                          [ vm_gbprinter ]
C:/Users/lvbor/AppData/Local/Temp/_gbsbuild/obj/vm_instructions.rel
                                          [ vm_instructions ]
C:/Users/lvbor/AppData/Local/Temp/_gbsbuild/obj/vm_load_save.rel
                                          [ vm_load_save ]
C:/Users/lvbor/AppData/Local/Temp/_gbsbuild/obj/vm_math.rel
                                          [ vm_math ]
C:/Users/lvbor/AppData/Local/Temp/_gbsbuild/obj/vm_music.rel
                                          [ vm_music ]
C:/Users/lvbor/AppData/Local/Temp/_gbsbuild/obj/vm_palette.rel
                                          [ vm_palette ]
C:/Users/lvbor/AppData/Local/Temp/_gbsbuild/obj/vm_projectiles.rel
                                          [ vm_projectiles ]
C:/Users/lvbor/AppData/Local/Temp/_gbsbuild/obj/vm_rtc.rel
                                          [ vm_rtc ]
C:/Users/lvbor/AppData/Local/Temp/_gbsbuild/obj/vm_scene.rel
                                          [ vm_scene ]
C:/Users/lvbor/AppData/Local/Temp/_gbsbuild/obj/vm_sgb.rel
                                          [ vm_sgb ]
C:/Users/lvbor/AppData/Local/Temp/_gbsbuild/obj/vm_sio.rel
                                          [ vm_sio ]
C:/Users/lvbor/AppData/Local/Temp/_gbsbuild/obj/vm_ui_a.rel
                                          [ vm_ui_a ]
C:/Users/lvbor/AppData/Local/Temp/_gbsbuild/obj/vm_ui.rel
                                          [ vm_ui ]
C:/Users/lvbor/AppData/Local/Temp/_gbsbuild/obj/vm.rel
                                          [ vm ]
C:/Users/lvbor/AppData/Local/Temp/_gbsbuild/obj/actor_0_interact.rel
                                          [ actor_0_interact ]
C:/Users/lvbor/AppData/Local/Temp/_gbsbuild/obj/actor_0_update.rel
                                          [ actor_0_update ]
C:/Users/lvbor/AppData/Local/Temp/_gbsbuild/obj/actor_1_interact.rel
                                          [ actor_1_interact ]
C:/Users/lvbor/AppData/Local/Temp/_gbsbuild/obj/actor_1_update.rel
                                          [ actor_1_update ]
C:/Users/lvbor/AppData/Local/Temp/_gbsbuild/obj/actor_10_interact.rel
                                          [ actor_10_interact ]
C:/Users/lvbor/AppData/Local/Temp/_gbsbuild/obj/actor_10_update.rel
                                          [ actor_10_update ]
C:/Users/lvbor/AppData/Local/Temp/_gbsbuild/obj/actor_11_interact.rel
                                          [ actor_11_interact ]
C:/Users/lvbor/AppData/Local/Temp/_gbsbuild/obj/actor_11_update.rel
                                          [ actor_11_update ]
C:/Users/lvbor/AppData/Local/Temp/_gbsbuild/obj/actor_12_interact.rel
                                          [ actor_12_interact ]
C:/Users/lvbor/AppData/Local/Temp/_gbsbuild/obj/actor_12_update.rel
                                          [ actor_12_update ]
C:/Users/lvbor/AppData/Local/Temp/_gbsbuild/obj/actor_13_interact.rel
                                          [ actor_13_interact ]
C:/Users/lvbor/AppData/Local/Temp/_gbsbuild/obj/actor_13_update.rel
                                          [ actor_13_update ]
C:/Users/lvbor/AppData/Local/Temp/_gbsbuild/obj/actor_14_interact.rel
                                          [ actor_14_interact ]
C:/Users/lvbor/AppData/Local/Temp/_gbsbuild/obj/actor_14_update.rel
                                          [ actor_14_update ]
C:/Users/lvbor/AppData/Local/Temp/_gbsbuild/obj/actor_15_interact.rel
                                          [ actor_15_interact ]
C:/Users/lvbor/AppData/Local/Temp/_gbsbuild/obj/actor_15_update.rel
                                          [ actor_15_update ]
C:/Users/lvbor/AppData/Local/Temp/_gbsbuild/obj/actor_16_interact.rel
                                          [ actor_16_interact ]
C:/Users/lvbor/AppData/Local/Temp/_gbsbuild/obj/actor_16_update.rel
                                          [ actor_16_update ]
C:/Users/lvbor/AppData/Local/Temp/_gbsbuild/obj/actor_17_interact.rel
                                          [ actor_17_interact ]
C:/Users/lvbor/AppData/Local/Temp/_gbsbuild/obj/actor_17_update.rel
                                          [ actor_17_update ]
C:/Users/lvbor/AppData/Local/Temp/_gbsbuild/obj/actor_18_interact.rel
                                          [ actor_18_interact ]
C:/Users/lvbor/AppData/Local/Temp/_gbsbuild/obj/actor_18_update.rel
                                          [ actor_18_update ]
C:/Users/lvbor/AppData/Local/Temp/_gbsbuild/obj/actor_19_interact.rel
                                          [ actor_19_interact ]
C:/Users/lvbor/AppData/Local/Temp/_gbsbuild/obj/actor_19_update.rel
                                          [ actor_19_update ]
C:/Users/lvbor/AppData/Local/Temp/_gbsbuild/obj/actor_2_interact.rel
                                          [ actor_2_interact ]
C:/Users/lvbor/AppData/Local/Temp/_gbsbuild/obj/actor_2_update.rel
                                          [ actor_2_update ]
C:/Users/lvbor/AppData/Local/Temp/_gbsbuild/obj/actor_20_interact.rel
                                          [ actor_20_interact ]
C:/Users/lvbor/AppData/Local/Temp/_gbsbuild/obj/actor_20_update.rel
                                          [ actor_20_update ]
C:/Users/lvbor/AppData/Local/Temp/_gbsbuild/obj/actor_21_interact.rel
                                          [ actor_21_interact ]
C:/Users/lvbor/AppData/Local/Temp/_gbsbuild/obj/actor_21_update.rel
                                          [ actor_21_update ]
C:/Users/lvbor/AppData/Local/Temp/_gbsbuild/obj/actor_22_interact.rel
                                          [ actor_22_interact ]
C:/Users/lvbor/AppData/Local/Temp/_gbsbuild/obj/actor_22_update.rel
                                          [ actor_22_update ]
C:/Users/lvbor/AppData/Local/Temp/_gbsbuild/obj/actor_23_interact.rel
                                          [ actor_23_interact ]
C:/Users/lvbor/AppData/Local/Temp/_gbsbuild/obj/actor_23_update.rel
                                          [ actor_23_update ]
C:/Users/lvbor/AppData/Local/Temp/_gbsbuild/obj/actor_24_interact.rel
                                          [ actor_24_interact ]
C:/Users/lvbor/AppData/Local/Temp/_gbsbuild/obj/actor_24_update.rel
                                          [ actor_24_update ]
C:/Users/lvbor/AppData/Local/Temp/_gbsbuild/obj/actor_25_interact.rel
                                          [ actor_25_interact ]
C:/Users/lvbor/AppData/Local/Temp/_gbsbuild/obj/actor_25_update.rel
                                          [ actor_25_update ]
C:/Users/lvbor/AppData/Local/Temp/_gbsbuild/obj/actor_26_interact.rel
                                          [ actor_26_interact ]
C:/Users/lvbor/AppData/Local/Temp/_gbsbuild/obj/actor_26_update.rel
                                          [ actor_26_update ]
C:/Users/lvbor/AppData/Local/Temp/_gbsbuild/obj/actor_27_interact.rel
                                          [ actor_27_interact ]
C:/Users/lvbor/AppData/Local/Temp/_gbsbuild/obj/actor_27_update.rel
                                          [ actor_27_update ]
C:/Users/lvbor/AppData/Local/Temp/_gbsbuild/obj/actor_28_interact.rel
                                          [ actor_28_interact ]
C:/Users/lvbor/AppData/Local/Temp/_gbsbuild/obj/actor_28_update.rel
                                          [ actor_28_update ]
C:/Users/lvbor/AppData/Local/Temp/_gbsbuild/obj/actor_29_interact.rel
                                          [ actor_29_interact ]
C:/Users/lvbor/AppData/Local/Temp/_gbsbuild/obj/actor_29_update.rel
                                          [ actor_29_update ]
C:/Users/lvbor/AppData/Local/Temp/_gbsbuild/obj/actor_3_interact.rel
                                          [ actor_3_interact ]
C:/Users/lvbor/AppData/Local/Temp/_gbsbuild/obj/actor_3_update.rel
                                          [ actor_3_update ]
C:/Users/lvbor/AppData/Local/Temp/_gbsbuild/obj/actor_30_interact.rel
                                          [ actor_30_interact ]
C:/Users/lvbor/AppData/Local/Temp/_gbsbuild/obj/actor_30_update.rel
                                          [ actor_30_update ]
C:/Users/lvbor/AppData/Local/Temp/_gbsbuild/obj/actor_31_interact.rel
                                          [ actor_31_interact ]
C:/Users/lvbor/AppData/Local/Temp/_gbsbuild/obj/actor_31_update.rel
                                          [ actor_31_update ]
C:/Users/lvbor/AppData/Local/Temp/_gbsbuild/obj/actor_32_interact.rel
                                          [ actor_32_interact ]
C:/Users/lvbor/AppData/Local/Temp/_gbsbuild/obj/actor_32_update.rel
                                          [ actor_32_update ]
C:/Users/lvbor/AppData/Local/Temp/_gbsbuild/obj/actor_33_interact.rel
                                          [ actor_33_interact ]
C:/Users/lvbor/AppData/Local/Temp/_gbsbuild/obj/actor_33_update.rel
                                          [ actor_33_update ]
C:/Users/lvbor/AppData/Local/Temp/_gbsbuild/obj/actor_34_interact.rel
                                          [ actor_34_interact ]
C:/Users/lvbor/AppData/Local/Temp/_gbsbuild/obj/actor_34_update.rel
                                          [ actor_34_update ]
C:/Users/lvbor/AppData/Local/Temp/_gbsbuild/obj/actor_35_interact.rel
                                          [ actor_35_interact ]
C:/Users/lvbor/AppData/Local/Temp/_gbsbuild/obj/actor_35_update.rel
                                          [ actor_35_update ]
C:/Users/lvbor/AppData/Local/Temp/_gbsbuild/obj/actor_36_interact.rel
                                          [ actor_36_interact ]
C:/Users/lvbor/AppData/Local/Temp/_gbsbuild/obj/actor_36_update.rel
                                          [ actor_36_update ]
C:/Users/lvbor/AppData/Local/Temp/_gbsbuild/obj/actor_37_interact.rel
                                          [ actor_37_interact ]
C:/Users/lvbor/AppData/Local/Temp/_gbsbuild/obj/actor_37_update.rel
                                          [ actor_37_update ]
C:/Users/lvbor/AppData/Local/Temp/_gbsbuild/obj/actor_38_interact.rel
                                          [ actor_38_interact ]
C:/Users/lvbor/AppData/Local/Temp/_gbsbuild/obj/actor_38_update.rel
                                          [ actor_38_update ]
C:/Users/lvbor/AppData/Local/Temp/_gbsbuild/obj/actor_39_interact.rel
                                          [ actor_39_interact ]
C:/Users/lvbor/AppData/Local/Temp/_gbsbuild/obj/actor_39_update.rel
                                          [ actor_39_update ]
C:/Users/lvbor/AppData/Local/Temp/_gbsbuild/obj/actor_4_interact.rel
                                          [ actor_4_interact ]
C:/Users/lvbor/AppData/Local/Temp/_gbsbuild/obj/actor_4_update.rel
                                          [ actor_4_update ]
C:/Users/lvbor/AppData/Local/Temp/_gbsbuild/obj/actor_40_interact.rel
                                          [ actor_40_interact ]
C:/Users/lvbor/AppData/Local/Temp/_gbsbuild/obj/actor_40_update.rel
                                          [ actor_40_update ]
C:/Users/lvbor/AppData/Local/Temp/_gbsbuild/obj/actor_41_interact.rel
                                          [ actor_41_interact ]
C:/Users/lvbor/AppData/Local/Temp/_gbsbuild/obj/actor_41_update.rel
                                          [ actor_41_update ]
C:/Users/lvbor/AppData/Local/Temp/_gbsbuild/obj/actor_42_interact.rel
                                          [ actor_42_interact ]
C:/Users/lvbor/AppData/Local/Temp/_gbsbuild/obj/actor_42_update.rel
                                          [ actor_42_update ]
C:/Users/lvbor/AppData/Local/Temp/_gbsbuild/obj/actor_43_interact.rel
                                          [ actor_43_interact ]
C:/Users/lvbor/AppData/Local/Temp/_gbsbuild/obj/actor_43_update.rel
                                          [ actor_43_update ]
C:/Users/lvbor/AppData/Local/Temp/_gbsbuild/obj/actor_44_interact.rel
                                          [ actor_44_interact ]
C:/Users/lvbor/AppData/Local/Temp/_gbsbuild/obj/actor_44_update.rel
                                          [ actor_44_update ]
C:/Users/lvbor/AppData/Local/Temp/_gbsbuild/obj/actor_45_interact.rel
                                          [ actor_45_interact ]
C:/Users/lvbor/AppData/Local/Temp/_gbsbuild/obj/actor_45_update.rel
                                          [ actor_45_update ]
C:/Users/lvbor/AppData/Local/Temp/_gbsbuild/obj/actor_46_interact.rel
                                          [ actor_46_interact ]
C:/Users/lvbor/AppData/Local/Temp/_gbsbuild/obj/actor_46_update.rel
                                          [ actor_46_update ]
C:/Users/lvbor/AppData/Local/Temp/_gbsbuild/obj/actor_47_interact.rel
                                          [ actor_47_interact ]
C:/Users/lvbor/AppData/Local/Temp/_gbsbuild/obj/actor_47_update.rel
                                          [ actor_47_update ]
C:/Users/lvbor/AppData/Local/Temp/_gbsbuild/obj/actor_48_interact.rel
                                          [ actor_48_interact ]
C:/Users/lvbor/AppData/Local/Temp/_gbsbuild/obj/actor_48_update.rel
                                          [ actor_48_update ]
C:/Users/lvbor/AppData/Local/Temp/_gbsbuild/obj/actor_49_interact.rel
                                          [ actor_49_interact ]
C:/Users/lvbor/AppData/Local/Temp/_gbsbuild/obj/actor_49_update.rel
                                          [ actor_49_update ]
C:/Users/lvbor/AppData/Local/Temp/_gbsbuild/obj/actor_5_interact.rel
                                          [ actor_5_interact ]
C:/Users/lvbor/AppData/Local/Temp/_gbsbuild/obj/actor_5_update.rel
                                          [ actor_5_update ]
C:/Users/lvbor/AppData/Local/Temp/_gbsbuild/obj/actor_50_interact.rel
                                          [ actor_50_interact ]
C:/Users/lvbor/AppData/Local/Temp/_gbsbuild/obj/actor_50_update.rel
                                          [ actor_50_update ]
C:/Users/lvbor/AppData/Local/Temp/_gbsbuild/obj/actor_51_interact.rel
                                          [ actor_51_interact ]
C:/Users/lvbor/AppData/Local/Temp/_gbsbuild/obj/actor_51_update.rel
                                          [ actor_51_update ]
C:/Users/lvbor/AppData/Local/Temp/_gbsbuild/obj/actor_52_interact.rel
                                          [ actor_52_interact ]
C:/Users/lvbor/AppData/Local/Temp/_gbsbuild/obj/actor_52_update.rel
                                          [ actor_52_update ]
C:/Users/lvbor/AppData/Local/Temp/_gbsbuild/obj/actor_53_interact.rel
                                          [ actor_53_interact ]
C:/Users/lvbor/AppData/Local/Temp/_gbsbuild/obj/actor_53_update.rel
                                          [ actor_53_update ]
C:/Users/lvbor/AppData/Local/Temp/_gbsbuild/obj/actor_54_interact.rel
                                          [ actor_54_interact ]
C:/Users/lvbor/AppData/Local/Temp/_gbsbuild/obj/actor_54_update.rel
                                          [ actor_54_update ]
C:/Users/lvbor/AppData/Local/Temp/_gbsbuild/obj/actor_55_interact.rel
                                          [ actor_55_interact ]
C:/Users/lvbor/AppData/Local/Temp/_gbsbuild/obj/actor_55_update.rel
                                          [ actor_55_update ]
C:/Users/lvbor/AppData/Local/Temp/_gbsbuild/obj/actor_56_interact.rel
                                          [ actor_56_interact ]
C:/Users/lvbor/AppData/Local/Temp/_gbsbuild/obj/actor_56_update.rel
                                          [ actor_56_update ]
C:/Users/lvbor/AppData/Local/Temp/_gbsbuild/obj/actor_57_interact.rel
                                          [ actor_57_interact ]
C:/Users/lvbor/AppData/Local/Temp/_gbsbuild/obj/actor_57_update.rel
                                          [ actor_57_update ]
C:/Users/lvbor/AppData/Local/Temp/_gbsbuild/obj/actor_58_interact.rel
                                          [ actor_58_interact ]
C:/Users/lvbor/AppData/Local/Temp/_gbsbuild/obj/actor_58_update.rel
                                          [ actor_58_update ]
C:/Users/lvbor/AppData/Local/Temp/_gbsbuild/obj/actor_59_interact.rel
                                          [ actor_59_interact ]
C:/Users/lvbor/AppData/Local/Temp/_gbsbuild/obj/actor_59_update.rel
                                          [ actor_59_update ]
C:/Users/lvbor/AppData/Local/Temp/_gbsbuild/obj/actor_6_interact.rel
                                          [ actor_6_interact ]
C:/Users/lvbor/AppData/Local/Temp/_gbsbuild/obj/actor_6_update.rel
                                          [ actor_6_update ]
C:/Users/lvbor/AppData/Local/Temp/_gbsbuild/obj/actor_60_interact.rel
                                          [ actor_60_interact ]
C:/Users/lvbor/AppData/Local/Temp/_gbsbuild/obj/actor_60_update.rel
                                          [ actor_60_update ]
C:/Users/lvbor/AppData/Local/Temp/_gbsbuild/obj/actor_61_interact.rel
                                          [ actor_61_interact ]
C:/Users/lvbor/AppData/Local/Temp/_gbsbuild/obj/actor_61_update.rel
                                          [ actor_61_update ]
C:/Users/lvbor/AppData/Local/Temp/_gbsbuild/obj/actor_62_interact.rel
                                          [ actor_62_interact ]
C:/Users/lvbor/AppData/Local/Temp/_gbsbuild/obj/actor_62_update.rel
                                          [ actor_62_update ]
C:/Users/lvbor/AppData/Local/Temp/_gbsbuild/obj/actor_63_interact.rel
                                          [ actor_63_interact ]
C:/Users/lvbor/AppData/Local/Temp/_gbsbuild/obj/actor_63_update.rel
                                          [ actor_63_update ]
C:/Users/lvbor/AppData/Local/Temp/_gbsbuild/obj/actor_64_interact.rel
                                          [ actor_64_interact ]
C:/Users/lvbor/AppData/Local/Temp/_gbsbuild/obj/actor_64_update.rel
                                          [ actor_64_update ]
C:/Users/lvbor/AppData/Local/Temp/_gbsbuild/obj/actor_65_interact.rel
                                          [ actor_65_interact ]
C:/Users/lvbor/AppData/Local/Temp/_gbsbuild/obj/actor_65_update.rel
                                          [ actor_65_update ]
C:/Users/lvbor/AppData/Local/Temp/_gbsbuild/obj/actor_66_interact.rel
                                          [ actor_66_interact ]
C:/Users/lvbor/AppData/Local/Temp/_gbsbuild/obj/actor_66_update.rel
                                          [ actor_66_update ]
C:/Users/lvbor/AppData/Local/Temp/_gbsbuild/obj/actor_67_interact.rel
                                          [ actor_67_interact ]
C:/Users/lvbor/AppData/Local/Temp/_gbsbuild/obj/actor_67_update.rel
                                          [ actor_67_update ]
C:/Users/lvbor/AppData/Local/Temp/_gbsbuild/obj/actor_68_interact.rel
                                          [ actor_68_interact ]
C:/Users/lvbor/AppData/Local/Temp/_gbsbuild/obj/actor_68_update.rel
                                          [ actor_68_update ]
C:/Users/lvbor/AppData/Local/Temp/_gbsbuild/obj/actor_69_interact.rel
                                          [ actor_69_interact ]
C:/Users/lvbor/AppData/Local/Temp/_gbsbuild/obj/actor_69_update.rel
                                          [ actor_69_update ]
C:/Users/lvbor/AppData/Local/Temp/_gbsbuild/obj/actor_7_interact.rel
                                          [ actor_7_interact ]
C:/Users/lvbor/AppData/Local/Temp/_gbsbuild/obj/actor_7_update.rel
                                          [ actor_7_update ]
C:/Users/lvbor/AppData/Local/Temp/_gbsbuild/obj/actor_70_interact.rel
                                          [ actor_70_interact ]
C:/Users/lvbor/AppData/Local/Temp/_gbsbuild/obj/actor_70_update.rel
                                          [ actor_70_update ]
C:/Users/lvbor/AppData/Local/Temp/_gbsbuild/obj/actor_71_interact.rel
                                          [ actor_71_interact ]
C:/Users/lvbor/AppData/Local/Temp/_gbsbuild/obj/actor_71_update.rel
                                          [ actor_71_update ]
C:/Users/lvbor/AppData/Local/Temp/_gbsbuild/obj/actor_8_interact.rel
                                          [ actor_8_interact ]
C:/Users/lvbor/AppData/Local/Temp/_gbsbuild/obj/actor_8_update.rel
                                          [ actor_8_update ]
C:/Users/lvbor/AppData/Local/Temp/_gbsbuild/obj/actor_9_interact.rel
                                          [ actor_9_interact ]
C:/Users/lvbor/AppData/Local/Temp/_gbsbuild/obj/actor_9_update.rel
                                          [ actor_9_update ]
C:/Users/lvbor/AppData/Local/Temp/_gbsbuild/obj/bg_map2_tilemap.rel
                                          [ bg_map2_tilemap ]
C:/Users/lvbor/AppData/Local/Temp/_gbsbuild/obj/bg_map2_tileset.rel
                                          [ bg_map2_tileset ]
C:/Users/lvbor/AppData/Local/Temp/_gbsbuild/obj/bg_map2.rel
                                          [ bg_map2 ]
C:/Users/lvbor/AppData/Local/Temp/_gbsbuild/obj/bg_map3_tilemap.rel
                                          [ bg_map3_tilemap ]
C:/Users/lvbor/AppData/Local/Temp/_gbsbuild/obj/bg_map3_tileset.rel
                                          [ bg_map3_tileset ]
C:/Users/lvbor/AppData/Local/Temp/_gbsbuild/obj/bg_map3.rel
                                          [ bg_map3 ]
C:/Users/lvbor/AppData/Local/Temp/_gbsbuild/obj/bg_mmmmmmmmmmmmmap_tilemap.rel
                                          [ bg_mmmmmmmmmmmmmap_tilemap ]
C:/Users/lvbor/AppData/Local/Temp/_gbsbuild/obj/bg_mmmmmmmmmmmmmap_tileset.rel
                                          [ bg_mmmmmmmmmmmmmap_tileset ]
C:/Users/lvbor/AppData/Local/Temp/_gbsbuild/obj/bg_mmmmmmmmmmmmmap.rel
                                          [ bg_mmmmmmmmmmmmmap ]
C:/Users/lvbor/AppData/Local/Temp/_gbsbuild/obj/bg_placeholder_tilemap.rel
                                          [ bg_placeholder_tilemap ]
C:/Users/lvbor/AppData/Local/Temp/_gbsbuild/obj/bg_placeholder_tileset.rel
                                          [ bg_placeholder_tileset ]
C:/Users/lvbor/AppData/Local/Temp/_gbsbuild/obj/bg_placeholder.rel
                                          [ bg_placeholder ]
C:/Users/lvbor/AppData/Local/Temp/_gbsbuild/obj/cursor_image.rel
                                          [ cursor_image ]
C:/Users/lvbor/AppData/Local/Temp/_gbsbuild/obj/font_gbs_mono.rel
                                          [ font_gbs_mono ]
C:/Users/lvbor/AppData/Local/Temp/_gbsbuild/obj/frame_image.rel
                                          [ frame_image ]
C:/Users/lvbor/AppData/Local/Temp/_gbsbuild/obj/game_signature.rel
                                          [ game_signature ]
C:/Users/lvbor/AppData/Local/Temp/_gbsbuild/obj/song_rulz_lightmood_0_Data.rel
                                          [ song_rulz_lightmood_0_Data ]
C:/Users/lvbor/AppData/Local/Temp/_gbsbuild/obj/song_rulz_outside_0_Data.rel
                                          [ song_rulz_outside_0_Data ]
C:/Users/lvbor/AppData/Local/Temp/_gbsbuild/obj/song_tronimal_drumsexample_Data.rel
                                          [ song_tronimal_drumsexample_Data ]
C:/Users/lvbor/AppData/Local/Temp/_gbsbuild/obj/song_tronimal_echoexample_Data.rel
                                          [ song_tronimal_echoexample_Data ]
C:/Users/lvbor/AppData/Local/Temp/_gbsbuild/obj/song_win_Data.rel
                                          [ song_win_Data ]
C:/Users/lvbor/AppData/Local/Temp/_gbsbuild/obj/palette_0.rel
                                          [ palette_0 ]
C:/Users/lvbor/AppData/Local/Temp/_gbsbuild/obj/palette_1.rel
                                          [ palette_1 ]
C:/Users/lvbor/AppData/Local/Temp/_gbsbuild/obj/scene_0_collisions.rel
                                          [ scene_0_collisions ]
C:/Users/lvbor/AppData/Local/Temp/_gbsbuild/obj/scene_0_init.rel
                                          [ scene_0_init ]
C:/Users/lvbor/AppData/Local/Temp/_gbsbuild/obj/scene_0.rel
                                          [ scene_0 ]
C:/Users/lvbor/AppData/Local/Temp/_gbsbuild/obj/scene_1_actors.rel
                                          [ scene_1_actors ]
C:/Users/lvbor/AppData/Local/Temp/_gbsbuild/obj/scene_1_collisions.rel
                                          [ scene_1_collisions ]
C:/Users/lvbor/AppData/Local/Temp/_gbsbuild/obj/scene_1_init.rel
                                          [ scene_1_init ]
C:/Users/lvbor/AppData/Local/Temp/_gbsbuild/obj/scene_1_sprites.rel
                                          [ scene_1_sprites ]
C:/Users/lvbor/AppData/Local/Temp/_gbsbuild/obj/scene_1_triggers.rel
                                          [ scene_1_triggers ]
C:/Users/lvbor/AppData/Local/Temp/_gbsbuild/obj/scene_1.rel
                                          [ scene_1 ]
C:/Users/lvbor/AppData/Local/Temp/_gbsbuild/obj/scene_10_actors.rel
                                          [ scene_10_actors ]
C:/Users/lvbor/AppData/Local/Temp/_gbsbuild/obj/scene_10_collisions.rel
                                          [ scene_10_collisions ]
C:/Users/lvbor/AppData/Local/Temp/_gbsbuild/obj/scene_10_init.rel
                                          [ scene_10_init ]
C:/Users/lvbor/AppData/Local/Temp/_gbsbuild/obj/scene_10_sprites.rel
                                          [ scene_10_sprites ]
C:/Users/lvbor/AppData/Local/Temp/_gbsbuild/obj/scene_10_triggers.rel
                                          [ scene_10_triggers ]
C:/Users/lvbor/AppData/Local/Temp/_gbsbuild/obj/scene_10.rel
                                          [ scene_10 ]
C:/Users/lvbor/AppData/Local/Temp/_gbsbuild/obj/scene_11_actors.rel
                                          [ scene_11_actors ]
C:/Users/lvbor/AppData/Local/Temp/_gbsbuild/obj/scene_11_collisions.rel
                                          [ scene_11_collisions ]
C:/Users/lvbor/AppData/Local/Temp/_gbsbuild/obj/scene_11_init.rel
                                          [ scene_11_init ]
C:/Users/lvbor/AppData/Local/Temp/_gbsbuild/obj/scene_11_sprites.rel
                                          [ scene_11_sprites ]
C:/Users/lvbor/AppData/Local/Temp/_gbsbuild/obj/scene_11_triggers.rel
                                          [ scene_11_triggers ]
C:/Users/lvbor/AppData/Local/Temp/_gbsbuild/obj/scene_11.rel
                                          [ scene_11 ]
C:/Users/lvbor/AppData/Local/Temp/_gbsbuild/obj/scene_12_actors.rel
                                          [ scene_12_actors ]
C:/Users/lvbor/AppData/Local/Temp/_gbsbuild/obj/scene_12_collisions.rel
                                          [ scene_12_collisions ]
C:/Users/lvbor/AppData/Local/Temp/_gbsbuild/obj/scene_12_init.rel
                                          [ scene_12_init ]
C:/Users/lvbor/AppData/Local/Temp/_gbsbuild/obj/scene_12_sprites.rel
                                          [ scene_12_sprites ]
C:/Users/lvbor/AppData/Local/Temp/_gbsbuild/obj/scene_12_triggers.rel
                                          [ scene_12_triggers ]
C:/Users/lvbor/AppData/Local/Temp/_gbsbuild/obj/scene_12.rel
                                          [ scene_12 ]
C:/Users/lvbor/AppData/Local/Temp/_gbsbuild/obj/scene_13_actors.rel
                                          [ scene_13_actors ]
C:/Users/lvbor/AppData/Local/Temp/_gbsbuild/obj/scene_13_collisions.rel
                                          [ scene_13_collisions ]
C:/Users/lvbor/AppData/Local/Temp/_gbsbuild/obj/scene_13_init.rel
                                          [ scene_13_init ]
C:/Users/lvbor/AppData/Local/Temp/_gbsbuild/obj/scene_13_sprites.rel
                                          [ scene_13_sprites ]
C:/Users/lvbor/AppData/Local/Temp/_gbsbuild/obj/scene_13_triggers.rel
                                          [ scene_13_triggers ]
C:/Users/lvbor/AppData/Local/Temp/_gbsbuild/obj/scene_13.rel
                                          [ scene_13 ]
C:/Users/lvbor/AppData/Local/Temp/_gbsbuild/obj/scene_14_actors.rel
                                          [ scene_14_actors ]
C:/Users/lvbor/AppData/Local/Temp/_gbsbuild/obj/scene_14_collisions.rel
                                          [ scene_14_collisions ]
C:/Users/lvbor/AppData/Local/Temp/_gbsbuild/obj/scene_14_init.rel
                                          [ scene_14_init ]
C:/Users/lvbor/AppData/Local/Temp/_gbsbuild/obj/scene_14_sprites.rel
                                          [ scene_14_sprites ]
C:/Users/lvbor/AppData/Local/Temp/_gbsbuild/obj/scene_14_triggers.rel
                                          [ scene_14_triggers ]
C:/Users/lvbor/AppData/Local/Temp/_gbsbuild/obj/scene_14.rel
                                          [ scene_14 ]
C:/Users/lvbor/AppData/Local/Temp/_gbsbuild/obj/scene_15_collisions.rel
                                          [ scene_15_collisions ]
C:/Users/lvbor/AppData/Local/Temp/_gbsbuild/obj/scene_15_init.rel
                                          [ scene_15_init ]
C:/Users/lvbor/AppData/Local/Temp/_gbsbuild/obj/scene_15.rel
                                          [ scene_15 ]
C:/Users/lvbor/AppData/Local/Temp/_gbsbuild/obj/scene_16_collisions.rel
                                          [ scene_16_collisions ]
C:/Users/lvbor/AppData/Local/Temp/_gbsbuild/obj/scene_16_init.rel
                                          [ scene_16_init ]
C:/Users/lvbor/AppData/Local/Temp/_gbsbuild/obj/scene_16.rel
                                          [ scene_16 ]
C:/Users/lvbor/AppData/Local/Temp/_gbsbuild/obj/scene_17_collisions.rel
                                          [ scene_17_collisions ]
C:/Users/lvbor/AppData/Local/Temp/_gbsbuild/obj/scene_17_init.rel
                                          [ scene_17_init ]
C:/Users/lvbor/AppData/Local/Temp/_gbsbuild/obj/scene_17.rel
                                          [ scene_17 ]
C:/Users/lvbor/AppData/Local/Temp/_gbsbuild/obj/scene_18_collisions.rel
                                          [ scene_18_collisions ]
C:/Users/lvbor/AppData/Local/Temp/_gbsbuild/obj/scene_18_init.rel
                                          [ scene_18_init ]
C:/Users/lvbor/AppData/Local/Temp/_gbsbuild/obj/scene_18.rel
                                          [ scene_18 ]
C:/Users/lvbor/AppData/Local/Temp/_gbsbuild/obj/scene_2_collisions.rel
                                          [ scene_2_collisions ]
C:/Users/lvbor/AppData/Local/Temp/_gbsbuild/obj/scene_2_init.rel
                                          [ scene_2_init ]
C:/Users/lvbor/AppData/Local/Temp/_gbsbuild/obj/scene_2.rel
                                          [ scene_2 ]
C:/Users/lvbor/AppData/Local/Temp/_gbsbuild/obj/scene_4_collisions.rel
                                          [ scene_4_collisions ]
C:/Users/lvbor/AppData/Local/Temp/_gbsbuild/obj/scene_4_init.rel
                                          [ scene_4_init ]
C:/Users/lvbor/AppData/Local/Temp/_gbsbuild/obj/scene_4.rel
                                          [ scene_4 ]
C:/Users/lvbor/AppData/Local/Temp/_gbsbuild/obj/scene_5_collisions.rel
                                          [ scene_5_collisions ]
C:/Users/lvbor/AppData/Local/Temp/_gbsbuild/obj/scene_5_init.rel
                                          [ scene_5_init ]
C:/Users/lvbor/AppData/Local/Temp/_gbsbuild/obj/scene_5.rel
                                          [ scene_5 ]
C:/Users/lvbor/AppData/Local/Temp/_gbsbuild/obj/scene_6_actors.rel
                                          [ scene_6_actors ]
C:/Users/lvbor/AppData/Local/Temp/_gbsbuild/obj/scene_6_collisions.rel
                                          [ scene_6_collisions ]
C:/Users/lvbor/AppData/Local/Temp/_gbsbuild/obj/scene_6_init.rel
                                          [ scene_6_init ]
C:/Users/lvbor/AppData/Local/Temp/_gbsbuild/obj/scene_6_sprites.rel
                                          [ scene_6_sprites ]
C:/Users/lvbor/AppData/Local/Temp/_gbsbuild/obj/scene_6_triggers.rel
                                          [ scene_6_triggers ]
C:/Users/lvbor/AppData/Local/Temp/_gbsbuild/obj/scene_6.rel
                                          [ scene_6 ]
C:/Users/lvbor/AppData/Local/Temp/_gbsbuild/obj/scene_7_actors.rel
                                          [ scene_7_actors ]
C:/Users/lvbor/AppData/Local/Temp/_gbsbuild/obj/scene_7_collisions.rel
                                          [ scene_7_collisions ]
C:/Users/lvbor/AppData/Local/Temp/_gbsbuild/obj/scene_7_init.rel
                                          [ scene_7_init ]
C:/Users/lvbor/AppData/Local/Temp/_gbsbuild/obj/scene_7_sprites.rel
                                          [ scene_7_sprites ]
C:/Users/lvbor/AppData/Local/Temp/_gbsbuild/obj/scene_7_triggers.rel
                                          [ scene_7_triggers ]
C:/Users/lvbor/AppData/Local/Temp/_gbsbuild/obj/scene_7.rel
                                          [ scene_7 ]
C:/Users/lvbor/AppData/Local/Temp/_gbsbuild/obj/scene_8_collisions.rel
                                          [ scene_8_collisions ]
C:/Users/lvbor/AppData/Local/Temp/_gbsbuild/obj/scene_8_init.rel
                                          [ scene_8_init ]
C:/Users/lvbor/AppData/Local/Temp/_gbsbuild/obj/scene_8.rel
                                          [ scene_8 ]
C:/Users/lvbor/AppData/Local/Temp/_gbsbuild/obj/scene_9_actors.rel
                                          [ scene_9_actors ]
C:/Users/lvbor/AppData/Local/Temp/_gbsbuild/obj/scene_9_collisions.rel
                                          [ scene_9_collisions ]
C:/Users/lvbor/AppData/Local/Temp/_gbsbuild/obj/scene_9_init.rel
                                          [ scene_9_init ]
C:/Users/lvbor/AppData/Local/Temp/_gbsbuild/obj/scene_9_sprites.rel
                                          [ scene_9_sprites ]
C:/Users/lvbor/AppData/Local/Temp/_gbsbuild/obj/scene_9_triggers.rel
                                          [ scene_9_triggers ]
C:/Users/lvbor/AppData/Local/Temp/_gbsbuild/obj/scene_9.rel
                                          [ scene_9 ]
C:/Users/lvbor/AppData/Local/Temp/_gbsbuild/obj/script_engine_init.rel
                                          [  ]
C:/Users/lvbor/AppData/Local/Temp/_gbsbuild/obj/sound_legacy_0_0.rel
                                          [ sound_legacy_0_0 ]
C:/Users/lvbor/AppData/Local/Temp/_gbsbuild/obj/sound_legacy_0_1.rel
                                          [ sound_legacy_0_1 ]
C:/Users/lvbor/AppData/Local/Temp/_gbsbuild/obj/sound_legacy_0_2.rel
                                          [ sound_legacy_0_2 ]
C:/Users/lvbor/AppData/Local/Temp/_gbsbuild/obj/sound_legacy_0_3.rel
                                          [ sound_legacy_0_3 ]
C:/Users/lvbor/AppData/Local/Temp/_gbsbuild/obj/sound_legacy_0.rel
                                          [ sound_legacy_0 ]
C:/Users/lvbor/AppData/Local/Temp/_gbsbuild/obj/sound_tronimal_sound_effect.rel
                                          [ sound_tronimal_sound_effect ]
C:/Users/lvbor/AppData/Local/Temp/_gbsbuild/obj/sprite_actor_animated_tileset.rel
                                          [ sprite_actor_animated_tileset ]
C:/Users/lvbor/AppData/Local/Temp/_gbsbuild/obj/sprite_actor_animated.rel
                                          [ sprite_actor_animated ]
C:/Users/lvbor/AppData/Local/Temp/_gbsbuild/obj/sprite_dog_tileset.rel
                                          [ sprite_dog_tileset ]
C:/Users/lvbor/AppData/Local/Temp/_gbsbuild/obj/sprite_dog.rel
                                          [ sprite_dog ]
C:/Users/lvbor/AppData/Local/Temp/_gbsbuild/obj/sprite_fcarrr_tileset.rel
                                          [ sprite_fcarrr_tileset ]
C:/Users/lvbor/AppData/Local/Temp/_gbsbuild/obj/sprite_fcarrr.rel
                                          [ sprite_fcarrr ]
C:/Users/lvbor/AppData/Local/Temp/_gbsbuild/obj/sprite_fox_tileset.rel
                                          [ sprite_fox_tileset ]
C:/Users/lvbor/AppData/Local/Temp/_gbsbuild/obj/sprite_fox.rel
                                          [ sprite_fox ]
C:/Users/lvbor/AppData/Local/Temp/_gbsbuild/obj/sprite_log_copy_tileset.rel
                                          [ sprite_log_copy_tileset ]
C:/Users/lvbor/AppData/Local/Temp/_gbsbuild/obj/sprite_log_copy.rel
                                          [ sprite_log_copy ]
C:/Users/lvbor/AppData/Local/Temp/_gbsbuild/obj/sprite_log_tileset.rel
                                          [ sprite_log_tileset ]
C:/Users/lvbor/AppData/Local/Temp/_gbsbuild/obj/sprite_log.rel
                                          [ sprite_log ]
C:/Users/lvbor/AppData/Local/Temp/_gbsbuild/obj/sprite_skateboard_man_sprit_tileset.rel
                                          [ sprite_skateboard_man_sprit_tile ]
C:/Users/lvbor/AppData/Local/Temp/_gbsbuild/obj/sprite_skateboard_man_sprit.rel
                                          [ sprite_skateboard_man_sprit ]
C:/Users/lvbor/AppData/Local/Temp/_gbsbuild/obj/sprite_skunk_player_tileset.rel
                                          [ sprite_skunk_player_tileset ]
C:/Users/lvbor/AppData/Local/Temp/_gbsbuild/obj/sprite_skunk_player.rel
                                          [ sprite_skunk_player ]
C:/Users/lvbor/AppData/Local/Temp/_gbsbuild/obj/spritesheet_none.rel
                                          [ spritesheet_none ]
C:/Users/lvbor/AppData/Local/Temp/_gbsbuild/obj/tileset_default_frame.rel
                                          [ tileset_default_frame ]
C:/Users/lvbor/AppData/Local/Temp/_gbsbuild/obj/trigger_0_interact.rel
                                          [ trigger_0_interact ]
C:/Users/lvbor/AppData/Local/Temp/_gbsbuild/obj/trigger_1_interact.rel
                                          [ trigger_1_interact ]
C:/Users/lvbor/AppData/Local/Temp/_gbsbuild/obj/trigger_10_interact.rel
                                          [ trigger_10_interact ]
C:/Users/lvbor/AppData/Local/Temp/_gbsbuild/obj/trigger_11_interact.rel
                                          [ trigger_11_interact ]
C:/Users/lvbor/AppData/Local/Temp/_gbsbuild/obj/trigger_12_interact.rel
                                          [ trigger_12_interact ]
C:/Users/lvbor/AppData/Local/Temp/_gbsbuild/obj/trigger_13_interact.rel
                                          [ trigger_13_interact ]
C:/Users/lvbor/AppData/Local/Temp/_gbsbuild/obj/trigger_14_interact.rel
                                          [ trigger_14_interact ]
C:/Users/lvbor/AppData/Local/Temp/_gbsbuild/obj/trigger_15_interact.rel
                                          [ trigger_15_interact ]
C:/Users/lvbor/AppData/Local/Temp/_gbsbuild/obj/trigger_16_interact.rel
                                          [ trigger_16_interact ]
C:/Users/lvbor/AppData/Local/Temp/_gbsbuild/obj/trigger_17_interact.rel
                                          [ trigger_17_interact ]
C:/Users/lvbor/AppData/Local/Temp/_gbsbuild/obj/trigger_18_interact.rel
                                          [ trigger_18_interact ]
C:/Users/lvbor/AppData/Local/Temp/_gbsbuild/obj/trigger_19_interact.rel
                                          [ trigger_19_interact ]
C:/Users/lvbor/AppData/Local/Temp/_gbsbuild/obj/trigger_2_interact.rel
                                          [ trigger_2_interact ]
C:/Users/lvbor/AppData/Local/Temp/_gbsbuild/obj/trigger_20_interact.rel
                                          [ trigger_20_interact ]
C:/Users/lvbor/AppData/Local/Temp/_gbsbuild/obj/trigger_21_interact.rel
                                          [ trigger_21_interact ]
C:/Users/lvbor/AppData/Local/Temp/_gbsbuild/obj/trigger_22_interact.rel
                                          [ trigger_22_interact ]
C:/Users/lvbor/AppData/Local/Temp/_gbsbuild/obj/trigger_23_interact.rel
                                          [ trigger_23_interact ]
C:/Users/lvbor/AppData/Local/Temp/_gbsbuild/obj/trigger_25_interact.rel
                                          [ trigger_25_interact ]
C:/Users/lvbor/AppData/Local/Temp/_gbsbuild/obj/trigger_26_interact.rel
                                          [ trigger_26_interact ]
C:/Users/lvbor/AppData/Local/Temp/_gbsbuild/obj/trigger_27_interact.rel
                                          [ trigger_27_interact ]
C:/Users/lvbor/AppData/Local/Temp/_gbsbuild/obj/trigger_28_interact.rel
                                          [ trigger_28_interact ]
C:/Users/lvbor/AppData/Local/Temp/_gbsbuild/obj/trigger_29_interact.rel
                                          [ trigger_29_interact ]
C:/Users/lvbor/AppData/Local/Temp/_gbsbuild/obj/trigger_3_interact.rel
                                          [ trigger_3_interact ]
C:/Users/lvbor/AppData/Local/Temp/_gbsbuild/obj/trigger_30_interact.rel
                                          [ trigger_30_interact ]
C:/Users/lvbor/AppData/Local/Temp/_gbsbuild/obj/trigger_31_interact.rel
                                          [ trigger_31_interact ]
C:/Users/lvbor/AppData/Local/Temp/_gbsbuild/obj/trigger_32_interact.rel
                                          [ trigger_32_interact ]
C:/Users/lvbor/AppData/Local/Temp/_gbsbuild/obj/trigger_33_interact.rel
                                          [ trigger_33_interact ]
C:/Users/lvbor/AppData/Local/Temp/_gbsbuild/obj/trigger_34_interact.rel
                                          [ trigger_34_interact ]
C:/Users/lvbor/AppData/Local/Temp/_gbsbuild/obj/trigger_35_interact.rel
                                          [ trigger_35_interact ]
C:/Users/lvbor/AppData/Local/Temp/_gbsbuild/obj/trigger_36_interact.rel
                                          [ trigger_36_interact ]
C:/Users/lvbor/AppData/Local/Temp/_gbsbuild/obj/trigger_37_interact.rel
                                          [ trigger_37_interact ]
C:/Users/lvbor/AppData/Local/Temp/_gbsbuild/obj/trigger_38_interact.rel
                                          [ trigger_38_interact ]
C:/Users/lvbor/AppData/Local/Temp/_gbsbuild/obj/trigger_39_interact.rel
                                          [ trigger_39_interact ]
C:/Users/lvbor/AppData/Local/Temp/_gbsbuild/obj/trigger_4_interact.rel
                                          [ trigger_4_interact ]
C:/Users/lvbor/AppData/Local/Temp/_gbsbuild/obj/trigger_40_interact.rel
                                          [ trigger_40_interact ]
C:/Users/lvbor/AppData/Local/Temp/_gbsbuild/obj/trigger_41_interact.rel
                                          [ trigger_41_interact ]
C:/Users/lvbor/AppData/Local/Temp/_gbsbuild/obj/trigger_42_interact.rel
                                          [ trigger_42_interact ]
C:/Users/lvbor/AppData/Local/Temp/_gbsbuild/obj/trigger_43_interact.rel
                                          [ trigger_43_interact ]
C:/Users/lvbor/AppData/Local/Temp/_gbsbuild/obj/trigger_45_interact.rel
                                          [ trigger_45_interact ]
C:/Users/lvbor/AppData/Local/Temp/_gbsbuild/obj/trigger_46_interact.rel
                                          [ trigger_46_interact ]
C:/Users/lvbor/AppData/Local/Temp/_gbsbuild/obj/trigger_47_interact.rel
                                          [ trigger_47_interact ]
C:/Users/lvbor/AppData/Local/Temp/_gbsbuild/obj/trigger_48_interact.rel
                                          [ trigger_48_interact ]
C:/Users/lvbor/AppData/Local/Temp/_gbsbuild/obj/trigger_49_interact.rel
                                          [ trigger_49_interact ]
C:/Users/lvbor/AppData/Local/Temp/_gbsbuild/obj/trigger_5_interact.rel
                                          [ trigger_5_interact ]
C:/Users/lvbor/AppData/Local/Temp/_gbsbuild/obj/trigger_50_interact.rel
                                          [ trigger_50_interact ]
C:/Users/lvbor/AppData/Local/Temp/_gbsbuild/obj/trigger_51_interact.rel
                                          [ trigger_51_interact ]
C:/Users/lvbor/AppData/Local/Temp/_gbsbuild/obj/trigger_52_interact.rel
                                          [ trigger_52_interact ]
C:/Users/lvbor/AppData/Local/Temp/_gbsbuild/obj/trigger_53_interact.rel
                                          [ trigger_53_interact ]
C:/Users/lvbor/AppData/Local/Temp/_gbsbuild/obj/trigger_54_interact.rel
                                          [ trigger_54_interact ]
C:/Users/lvbor/AppData/Local/Temp/_gbsbuild/obj/trigger_55_interact.rel
                                          [ trigger_55_interact ]
C:/Users/lvbor/AppData/Local/Temp/_gbsbuild/obj/trigger_56_interact.rel
                                          [ trigger_56_interact ]
C:/Users/lvbor/AppData/Local/Temp/_gbsbuild/obj/trigger_57_interact.rel
                                          [ trigger_57_interact ]
C:/Users/lvbor/AppData/Local/Temp/_gbsbuild/obj/trigger_58_interact.rel
                                          [ trigger_58_interact ]
C:/Users/lvbor/AppData/Local/Temp/_gbsbuild/obj/trigger_59_interact.rel
                                          [ trigger_59_interact ]
C:/Users/lvbor/AppData/Local/Temp/_gbsbuild/obj/trigger_6_interact.rel
                                          [ trigger_6_interact ]
C:/Users/lvbor/AppData/Local/Temp/_gbsbuild/obj/trigger_60_interact.rel
                                          [ trigger_60_interact ]
C:/Users/lvbor/AppData/Local/Temp/_gbsbuild/obj/trigger_61_interact.rel
                                          [ trigger_61_interact ]
C:/Users/lvbor/AppData/Local/Temp/_gbsbuild/obj/trigger_62_interact.rel
                                          [ trigger_62_interact ]
C:/Users/lvbor/AppData/Local/Temp/_gbsbuild/obj/trigger_63_interact.rel
                                          [ trigger_63_interact ]
C:/Users/lvbor/AppData/Local/Temp/_gbsbuild/obj/trigger_64_interact.rel
                                          [ trigger_64_interact ]
C:/Users/lvbor/AppData/Local/Temp/_gbsbuild/obj/trigger_65_interact.rel
                                          [ trigger_65_interact ]
C:/Users/lvbor/AppData/Local/Temp/_gbsbuild/obj/trigger_66_interact.rel
                                          [ trigger_66_interact ]
C:/Users/lvbor/AppData/Local/Temp/_gbsbuild/obj/trigger_68_interact.rel
                                          [ trigger_68_interact ]
C:/Users/lvbor/AppData/Local/Temp/_gbsbuild/obj/trigger_69_interact.rel
                                          [ trigger_69_interact ]
C:/Users/lvbor/AppData/Local/Temp/_gbsbuild/obj/trigger_7_interact.rel
                                          [ trigger_7_interact ]
C:/Users/lvbor/AppData/Local/Temp/_gbsbuild/obj/trigger_70_interact.rel
                                          [ trigger_70_interact ]
C:/Users/lvbor/AppData/Local/Temp/_gbsbuild/obj/trigger_71_interact.rel
                                          [ trigger_71_interact ]
C:/Users/lvbor/AppData/Local/Temp/_gbsbuild/obj/trigger_72_interact.rel
                                          [ trigger_72_interact ]
C:/Users/lvbor/AppData/Local/Temp/_gbsbuild/obj/trigger_73_interact.rel
                                          [ trigger_73_interact ]
C:/Users/lvbor/AppData/Local/Temp/_gbsbuild/obj/trigger_74_interact.rel
                                          [ trigger_74_interact ]
C:/Users/lvbor/AppData/Local/Temp/_gbsbuild/obj/trigger_75_interact.rel
                                          [ trigger_75_interact ]
C:/Users/lvbor/AppData/Local/Temp/_gbsbuild/obj/trigger_76_interact.rel
                                          [ trigger_76_interact ]
C:/Users/lvbor/AppData/Local/Temp/_gbsbuild/obj/trigger_77_interact.rel
                                          [ trigger_77_interact ]
C:/Users/lvbor/AppData/Local/Temp/_gbsbuild/obj/trigger_8_interact.rel
                                          [ trigger_8_interact ]
C:/Users/lvbor/AppData/Local/Temp/_gbsbuild/obj/trigger_9_interact.rel
                                          [ trigger_9_interact ]
C:/Users/lvbor/AppData/Local/Temp/_gbsbuild/obj/main.rel
                                          [ main ]
C:/Users/lvbor/AppData/Local/Temp/_gbsbuild/obj/logo.rel
                                          [ logo ]
C:/Users/lvbor/AppData/Local/Temp/_gbsbuild/obj/states_ptrs.rel
                                          [  ]
C:/Users/lvbor/AppData/Local/Temp/_gbsbuild/obj/topdown.rel
                                          [ topdown ]


Libraries Linked                          [ object file ]

C:\Users\lvbor\AppData\Local\Temp/_gbstools/gbdk/lib/gb/gb.lib
                                          [ fill_rect_wi.o ]
C:\Users\lvbor\AppData\Local\Temp/_gbstools/gbdk/lib/sm83/sm83.lib
                                          [ rand.o ]
lib/hUGEDriver.lib                        [ hUGEDriver.o ]
C:\Users\lvbor\AppData\Local\Temp/_gbstools/gbdk/lib/gb/gb.lib
                                          [ sfr.o ]
C:\Users\lvbor\AppData\Local\Temp/_gbstools/gbdk/lib/gb/gb.lib
                                          [ get_data.o ]
C:\Users\lvbor\AppData\Local\Temp/_gbstools/gbdk/lib/gb/gb.lib
                                          [ get_tile.o ]
C:\Users\lvbor\AppData\Local\Temp/_gbstools/gbdk/lib/gb/gb.lib
                                          [ metasprites_hide_spr.o ]
C:\Users\lvbor\AppData\Local\Temp/_gbstools/gbdk/lib/sm83/sm83.lib
                                          [ mul.o ]
C:\Users\lvbor\AppData\Local\Temp/_gbstools/gbdk/lib/gb/gb.lib
                                          [ set_tile.o ]
C:\Users\lvbor\AppData\Local\Temp/_gbstools/gbdk/lib/sm83/sm83.lib
                                          [ abs.o ]
C:\Users\lvbor\AppData\Local\Temp/_gbstools/gbdk/lib/gb/gb.lib
                                          [ set_wi_t.o ]
C:\Users\lvbor\AppData\Local\Temp/_gbstools/gbdk/lib/gb/gb.lib
                                          [ set_data.o ]
C:\Users\lvbor\AppData\Local\Temp/_gbstools/gbdk/lib/sm83/sm83.lib
                                          [ reverse.o ]
C:\Users\lvbor\AppData\Local\Temp/_gbstools/gbdk/lib/gb/gb.lib
                                          [ far_ptr.o ]
C:\Users\lvbor\AppData\Local\Temp/_gbstools/gbdk/lib/gb/gb.lib
                                          [ sgb.o ]
C:\Users\lvbor\AppData\Local\Temp/_gbstools/gbdk/lib/gb/gb.lib
                                          [ lcd.o ]
C:\Users\lvbor\AppData\Local\Temp/_gbstools/gbdk/lib/gb/gb.lib
                                          [ fill_rect.o ]
C:\Users\lvbor\AppData\Local\Temp/_gbstools/gbdk/lib/gb/gb.lib
                                          [ cpy_data.o ]
C:\Users\lvbor\AppData\Local\Temp/_gbstools/gbdk/lib/gb/gb.lib
                                          [ fill_rect_bk.o ]
C:\Users\lvbor\AppData\Local\Temp/_gbstools/gbdk/lib/gb/gb.lib
                                          [ pad.o ]
C:\Users\lvbor\AppData\Local\Temp/_gbstools/gbdk/lib/gb/gb.lib
                                          [ metasprites.o ]
C:\Users\lvbor\AppData\Local\Temp/_gbstools/gbdk/lib/sm83/sm83.lib
                                          [ __sdcc_call_hl.o ]
C:\Users\lvbor\AppData\Local\Temp/_gbstools/gbdk/lib/sm83/sm83.lib
                                          [ memcpy.o ]
C:\Users\lvbor\AppData\Local\Temp/_gbstools/gbdk/lib/sm83/sm83.lib
                                          [ _memset.o ]
C:\Users\lvbor\AppData\Local\Temp/_gbstools/gbdk/lib/gb/gb.lib
                                          [ set_xy_t.o ]
C:\Users\lvbor\AppData\Local\Temp/_gbstools/gbdk/lib/gb/gb.lib
                                          [ ___sdcc_bcall_ehl.o ]
C:\Users\lvbor\AppData\Local\Temp/_gbstools/gbdk/lib/sm83/sm83.lib
                                          [ div.o ]
C:\Users\lvbor\AppData\Local\Temp/_gbstools/gbdk/lib/gb/gb.lib
                                          [ set_bk_t.o ]

ASxxxx Linker V03.00/V05.40 + sdld,  page 89.

User Base Address Definitions

_DATA=0xC0A0
_CODE=0x0200
ASxxxx Linker V03.00/V05.40 + sdld,  page 90.

User Global Definitions

.STACK=0xDF00
_shadow_OAM=0xC000
.refresh_OAM=0xFF80
__start_save=12

